(lp0
(lp1
(S'NewLevel'
p2
F0.0
tp3
a(S'symbolicRepresentationCount'
p4
F0.0
tp5
a(S'cumul_UseWindowInfo'
p6
F0.0
tp7
a(S'cumul_easyProblemCountWE'
p8
F0.0
tp9
a(S'ruleScoreCONTRA'
p10
F0.0
tp11
a(S'WrongSyntaxApp'
p12
F0.0
tp13
a(S'cumul_BDActionCount'
p14
F0.0
tp15
a(S'easyProblemCountWE'
p16
F0.0
tp17
a(S'SystemInfoHintCount'
p18
F0.0
tp19
a(S'SolvedPSInLevel'
p20
F0.0
tp21
a(S'deletedApp'
p22
F0.0
tp23
a(S'OptionalCount'
p24
F0.0017877574375
tp25
a(S'cumul_InDirectProofActionCount'
p26
F0.008537639221820837
tp27
a(S'englishSymbolicSwitchCount'
p28
F0.030229510636166683
tp29
a(S'InDirectProofActionCount'
p30
F0.03465810071849768
tp31
a(S'HoverHintCount'
p32
F0.05949237852173912
tp33
a(S'BDActionCount'
p34
F0.08082666704710144
tp35
a(S'hintCount'
p36
F0.13087139944544643
tp37
a(S'MorphCount'
p38
F0.14166199844303212
tp39
a(S'WrongSemanticsApp'
p40
F0.21861860520278786
tp41
a(S'UseWindowInfo'
p42
F0.22168192217391303
tp43
a(S'RrightAppRatio'
p44
F0.4173934935458822
tp45
a(S'RightApp'
p46
F0.4741572438100967
tp47
a(S'PrepCount'
p48
F0.5352716932113387
tp49
a(S'UseCount'
p50
F0.8723384456057847
tp51
a(S'WrongApp'
p52
F1.2781479751142615
tp53
a(S'cumul_easyProbAlternate'
p54
F1.3036139603639174
tp55
a(S'easyProbAlternate'
p56
F1.3036139603639174
tp57
a(S'cumul_probAlternate'
p58
F1.3036139603639174
tp59
a(S'probAlternate'
p60
F1.3036139603639174
tp61
a(S'hintRatio'
p62
F1.3471780805480214
tp63
a(S'PreviousStepClickCountWE'
p64
F1.4229240007203572
tp65
a(S'InterfaceErrorCount'
p66
F1.5021735695141567
tp67
a(S'AppCount'
p68
F1.793366856470702
tp69
a(S'DirectProofActionCount'
p70
F1.881519080323411
tp71
a(S'Interaction'
p72
F1.9257909650381555
tp73
a(S'cumul_PreviousStepClickCountWE'
p74
F1.9718887778356469
tp75
a(S'avgstepTimePS'
p76
F2.555842139068391
tp77
a(S'FDActionCount'
p78
F2.62589690433471
tp79
a(S'actionCount'
p80
F2.627734798576323
tp81
a(S'easyProblemCountSolved'
p82
F3.031319918555072
tp83
a(S'cumul_HoverHintCount'
p84
F3.0347075824215084
tp85
a(S'NonPSelements'
p86
F3.4113636888890007
tp87
a(S'avgstepTime'
p88
F3.590498388089544
tp89
a(S'cumul_RrightAppRatio'
p90
F3.9365865750116638
tp91
a(S'stepTimeDeviation'
p92
F4.093758885628611
tp93
a(S'TotalTime'
p94
F4.357470960732687
tp95
a(S'cumul_OptionalCount'
p96
F4.400198659513427
tp97
a(S'cumul_difficultProblemCountSolved'
p98
F4.61938509337047
tp99
a(S'cumul_englishSymbolicSwitchCount'
p100
F4.637765158505466
tp101
a(S'TotalPSTime'
p102
F4.986497044987962
tp103
a(S'cumul_avgstepTimePS'
p104
F5.067626372461392
tp105
a(S'ruleScoreADD'
p106
F5.199034730953702
tp107
a(S'RuleTypesCount'
p108
F5.2356159253066785
tp109
a(S'cumul_BlankRatio'
p110
F5.4325254170092565
tp111
a(S'cumul_AppRatio'
p112
F5.4325254170092565
tp113
a(S'cumul_deletedApp'
p114
F5.535627729543161
tp115
a(S'ruleScoreMT'
p116
F5.798812850780981
tp117
a(S'F1Score'
p118
F6.289822101011986
tp119
a(S'AppRatio'
p120
F6.3822722461625085
tp121
a(S'BlankRatio'
p122
F6.382453547916849
tp123
a(S'PrightAppRatio'
p124
F6.692620850712376
tp125
a(S'cumul_WrongSyntaxApp'
p126
F6.894431544687729
tp127
a(S'ruleScoreDIST'
p128
F7.132955478981149
tp129
a(S'cumul_avgstepTime'
p130
F7.508633686654448
tp131
a(S'cumul_hintRatio'
p132
F7.580214880418578
tp133
a(S'ruleScoreCOM'
p134
F8.1581600950604
tp135
a(S'ruleScoreTAUT'
p136
F8.520807440897643
tp137
a(S'cumul_SystemInfoHintCount'
p138
F8.59128857669709
tp139
a(S'cumul_hintCount'
p140
F8.683800754827072
tp141
a(S'cumul_difficultProblemCountWE'
p142
F8.958987936263552
tp143
a(S'ruleScoreCD'
p144
F8.987826085162569
tp145
a(S'ruleScoreSIMP'
p146
F9.064111883254695
tp147
a(S'cumul_symbolicRepresentationCount'
p148
F9.072198443362629
tp149
a(S'CurrPro_avgProbTimeDeviationPS'
p150
F9.404488214918777
tp151
a(S'cumul_MorphCount'
p152
F9.675779043223883
tp153
a(S'cumul_RightApp'
p154
F9.724661878941824
tp155
a(S'ruleScoreABS'
p156
F9.79084318846353
tp157
a(S'cumul_PrightAppRatio'
p158
F10.01605859454784
tp159
a(S'SeenWEinLevel'
p160
F10.177936326858347
tp161
a(S'cumul_AppCount'
p162
F10.479435983389816
tp163
a(S'cumul_avgstepTimeWE'
p164
F10.48942552260757
tp165
a(S'cumul_RuleTypesCount'
p166
F10.523493142514214
tp167
a(S'cumul_UseCount'
p168
F10.551565593937555
tp169
a(S'ruleScoreDS'
p170
F10.824616943832837
tp171
a(S'cumul_PrepCount'
p172
F11.013719124668183
tp173
a(S'NextStepClickCountWE'
p174
F11.297429415112202
tp175
a(S'cumul_FDActionCount'
p176
F11.45139929851862
tp177
a(S'cumul_actionCount'
p178
F11.538435873341431
tp179
a(S'cumul_easyProblemCountSolved'
p180
F11.663910257314036
tp181
a(S'probIndexPSinLevel'
p182
F11.879300632230787
tp183
a(S'cumul_WrongApp'
p184
F12.05838822840238
tp185
a(S'cumul_Interaction'
p186
F12.061665499899503
tp187
a(S'CurrPro_avgProbTime'
p188
F12.836805633491927
tp189
a(S'cumul_NextStepClickCountWE'
p190
F13.08673239908765
tp191
a(S'cumul_DirectProofActionCount'
p192
F13.263785379809987
tp193
a(S'TotalWETime'
p194
F13.3090468223044
tp195
a(S'cumul_InterfaceErrorCount'
p196
F13.729597200841317
tp197
a(S'cumul_TotalWETime'
p198
F13.750050303587132
tp199
a(S'CurrPro_avgProbTimePS'
p200
F14.08026377670206
tp201
a(S'cumul_TotalPSTime'
p202
F14.500555182277491
tp203
a(S'ruleScoreASSOC'
p204
F14.900174189054644
tp205
a(S'ruleScoreMP'
p206
F15.984833497917005
tp207
a(S'cumul_TotalTime'
p208
F16.722095845226495
tp209
a(S'difficultProblemCountWE'
p210
F16.881755706664304
tp211
a(S'cumul_WrongSemanticsApp'
p212
F17.359344825132908
tp213
a(S'ruleScoreDEM'
p214
F17.4707745972707
tp215
a(S'cumul_NonPSelements'
p216
F17.49306425180199
tp217
a(S'ruleScoreEQUIV'
p218
F17.496547854964525
tp219
a(S'CurrPro_NumProbRule'
p220
F17.74292857712875
tp221
a(S'Level'
p222
F17.82093877177134
tp223
a(S'ruleScoreDN'
p224
F18.042395532456926
tp225
a(S'ruleScoreCONJ'
p226
F18.485543363112825
tp227
a(S'CurrPro_medianProbTime'
p228
F18.562285908274145
tp229
a(S'ruleScoreHS'
p230
F18.853252422308
tp231
a(S'ruleScoreEXP'
p232
F19.54665755035175
tp233
a(S'ruleScoreIMPL'
p234
F21.613135158137716
tp235
a(S'cumul_F1Score'
p236
F21.8475327393869
tp237
a(S'CurrPro_avgProbTimeDeviationWE'
p238
F22.060403998070896
tp239
a(S'probIndexinLevel'
p240
F22.575834452777183
tp241
a(S'cumul_probIndexinLevel'
p242
F22.575834452777183
tp243
a(S'difficultProblemCountSolved'
p244
F27.495904195466874
tp245
a(S'probDiff'
p246
F28.605472275217597
tp247
a(S'CurrPro_avgProbTimeWE'
p248
F32.57328502309909
tp249
aa(lp250
(g240
F9.799123343960666
tp251
a(g242
F9.799123343960666
tp252
a(g222
F11.409069747075023
tp253
a(g246
F13.866726559900401
tp254
a(g2
F14.956443761205223
tp255
a(g98
F22.827670235483907
tp256
a(g238
F22.93373230045902
tp257
a(g142
F23.079512628587985
tp258
a(g228
F24.59041567282704
tp259
a(g150
F25.83987631990981
tp260
a(g190
F27.580929249216233
tp261
a(g138
F27.722347220091574
tp262
a(g188
F27.82546637386128
tp263
a(g200
F28.287727733721425
tp264
a(g90
F28.31971356539368
tp265
a(g182
F28.69479478759782
tp266
a(g46
F29.69340379037392
tp267
a(g220
F30.786273471133082
tp268
a(g100
F30.853234040944688
tp269
a(g110
F31.29937400286238
tp270
a(g112
F31.29937400286238
tp271
a(g4
F31.69385937314388
tp272
a(g16
F31.77611636566196
tp273
a(g6
F31.900724857742883
tp274
a(g154
F31.933336372733546
tp275
a(g8
F32.27899990511409
tp276
a(g22
F32.291287983112625
tp277
a(g50
F32.38997022896991
tp278
a(g146
F32.616123767934624
tp279
a(g106
F32.626363965874724
tp280
a(g28
F32.711051418414506
tp281
a(g104
F32.743916179157665
tp282
a(g18
F32.89594442483355
tp283
a(g86
F32.913190178288396
tp284
a(g30
F32.94154622159254
tp285
a(g54
F32.99701505929929
tp286
a(g56
F32.99701505929929
tp287
a(g58
F32.99701505929929
tp288
a(g60
F32.99701505929929
tp289
a(g38
F33.076294177413594
tp290
a(g10
F33.24670779740073
tp291
a(g148
F33.33116537578205
tp292
a(g48
F33.36670764770603
tp293
a(g20
F33.372602796684404
tp294
a(g68
F33.391250579711325
tp295
a(g196
F33.41530766756047
tp296
a(g216
F33.50508066907018
tp297
a(g12
F33.513256785639655
tp298
a(g66
F33.70064494185159
tp299
a(g168
F33.726800088534624
tp300
a(g140
F33.737254850819504
tp301
a(g52
F33.790148060656385
tp302
a(g206
F33.81560999858883
tp303
a(g42
F33.90596194466178
tp304
a(g82
F33.93468620703737
tp305
a(g84
F33.999134659946165
tp306
a(g24
F34.02644239833877
tp307
a(g40
F34.131626717389324
tp308
a(g118
F34.1356062782456
tp309
a(g180
F34.156112512794756
tp310
a(g166
F34.17626709933994
tp311
a(g132
F34.26621895419186
tp312
a(g34
F34.284903033791544
tp313
a(g244
F34.333769843756215
tp314
a(g162
F34.431275676916776
tp315
a(g78
F34.61143679533185
tp316
a(g236
F34.62738773145519
tp317
a(g108
F34.65349359073273
tp318
a(g14
F34.66506922601983
tp319
a(g26
F34.77120385455644
tp320
a(g184
F34.83650815936874
tp321
a(g172
F34.87353161413634
tp322
a(g186
F34.90578533021132
tp323
a(g44
F35.03014113116284
tp324
a(g70
F35.09146717072076
tp325
a(g134
F35.146637305987014
tp326
a(g160
F35.17716513495529
tp327
a(g80
F35.20276259819949
tp328
a(g114
F35.260612375121674
tp329
a(g152
F35.27340137670476
tp330
a(g32
F35.42366241775775
tp331
a(g116
F35.60981134314348
tp332
a(g74
F35.6742452654369
tp333
a(g126
F35.766251454292515
tp334
a(g36
F35.85044838851628
tp335
a(g136
F35.86189539226057
tp336
a(g164
F35.8969291131754
tp337
a(g170
F35.907393986453314
tp338
a(g212
F35.909133128891646
tp339
a(g92
F35.95506945656055
tp340
a(g192
F36.18746935064002
tp341
a(g158
F36.56758184455109
tp342
a(g202
F36.61388680590311
tp343
a(g224
F36.7445430565178
tp344
a(g72
F36.76221649706057
tp345
a(g96
F36.85422290102485
tp346
a(g176
F36.883630594639584
tp347
a(g178
F37.11651238373951
tp348
a(g62
F37.1246067696753
tp349
a(g64
F37.15707448150717
tp350
a(g76
F37.49239877568497
tp351
a(g174
F37.637351842467055
tp352
a(g204
F37.733282393208114
tp353
a(g226
F38.07225729594432
tp354
a(g230
F38.196954356157875
tp355
a(g234
F38.785210855365676
tp356
a(g210
F38.911665821749835
tp357
a(g218
F38.94236411601007
tp358
a(g122
F39.07452924551025
tp359
a(g120
F39.22835599937345
tp360
a(g128
F39.376598418455586
tp361
a(g130
F39.629738960818
tp362
a(g88
F39.862604159998796
tp363
a(g214
F39.97236403627327
tp364
a(g194
F40.04381002162149
tp365
a(g144
F40.40679600334999
tp366
a(g156
F40.408817079191635
tp367
a(g102
F41.09991948229359
tp368
a(g94
F41.53106831075768
tp369
a(g232
F41.62080968465874
tp370
a(g198
F42.22586871084121
tp371
a(g124
F44.00315569493155
tp372
a(g208
F44.85811892670043
tp373
aa(lp374
(g240
F21.975912574614867
tp375
a(g242
F21.975912574614867
tp376
a(g2
F23.174609688509243
tp377
a(g246
F27.54865654662909
tp378
a(g222
F27.849194311444997
tp379
a(g238
F31.56235611267907
tp380
a(g228
F35.91708022366245
tp381
a(g138
F36.087479554832704
tp382
a(g150
F38.41993832320571
tp383
a(g98
F39.938367681070645
tp384
a(g18
F40.849777782788216
tp385
a(g4
F41.10779891093597
tp386
a(g100
F41.37001387431532
tp387
a(g200
F41.662052928534635
tp388
a(g188
F42.16343403851182
tp389
a(g6
F42.452046497838474
tp390
a(g196
F42.459244877736204
tp391
a(g28
F42.92161634283883
tp392
a(g52
F43.21619397046215
tp393
a(g220
F43.40380161440386
tp394
a(g42
F43.68258350196351
tp395
a(g40
F43.82454608823884
tp396
a(g182
F43.82836826927593
tp397
a(g34
F43.93528540282997
tp398
a(g50
F44.05526071569422
tp399
a(g140
F44.09921956891869
tp400
a(g114
F44.21180813425418
tp401
a(g66
F44.21365506461467
tp402
a(g154
F44.264197860852875
tp403
a(g168
F44.27492125642459
tp404
a(g30
F44.39547906861003
tp405
a(g32
F44.48504540037453
tp406
a(g22
F44.6146480943747
tp407
a(g148
F44.66764806312916
tp408
a(g24
F44.70144359963628
tp409
a(g16
F44.85763211959887
tp410
a(g172
F44.96618850962953
tp411
a(g54
F45.006662513022405
tp412
a(g56
F45.006662513022405
tp413
a(g58
F45.006662513022405
tp414
a(g60
F45.006662513022405
tp415
a(g212
F45.03162881418152
tp416
a(g14
F45.094885362961485
tp417
a(g10
F45.1508209825216
tp418
a(g152
F45.49580186955601
tp419
a(g12
F45.67299924443069
tp420
a(g48
F45.89842030087088
tp421
a(g162
F46.026553229046336
tp422
a(g38
F46.19664022551899
tp423
a(g184
F46.2761727393396
tp424
a(g36
F46.42770100879902
tp425
a(g82
F46.47831643673828
tp426
a(g64
F46.52914946916961
tp427
a(g96
F46.55523929479784
tp428
a(g180
F46.607329810284014
tp429
a(g224
F46.62783529997543
tp430
a(g84
F46.662359983588814
tp431
a(g46
F46.681005291830616
tp432
a(g192
F46.82377376869991
tp433
a(g126
F46.83001746427964
tp434
a(g210
F47.04924339597012
tp435
a(g186
F47.39757497517564
tp436
a(g8
F47.461566172238065
tp437
a(g160
F47.64568177488589
tp438
a(g176
F47.83192672096159
tp439
a(g62
F47.83959774600089
tp440
a(g178
F47.93468824629555
tp441
a(g26
F48.01845705747253
tp442
a(g74
F48.15146182376988
tp443
a(g142
F48.4971237758294
tp444
a(g232
F48.66572870606813
tp445
a(g156
F48.94499474373873
tp446
a(g202
F48.9994950727991
tp447
a(g216
F49.07206997467841
tp448
a(g226
F49.15556679600708
tp449
a(g108
F49.25856152243351
tp450
a(g20
F49.388566011768006
tp451
a(g134
F49.58526515312377
tp452
a(g136
F49.6798548116004
tp453
a(g132
F49.687319970261925
tp454
a(g146
F49.84473394067042
tp455
a(g128
F49.85018389153036
tp456
a(g80
F49.9253318677798
tp457
a(g72
F50.125685791996304
tp458
a(g194
F50.33961903129338
tp459
a(g214
F50.47973472820868
tp460
a(g204
F50.509690052627114
tp461
a(g78
F50.55367584925179
tp462
a(g68
F50.73829341988189
tp463
a(g116
F50.86194333643782
tp464
a(g174
F51.0448730109856
tp465
a(g144
F51.110461578042525
tp466
a(g244
F51.26727204138125
tp467
a(g70
F51.478348091976514
tp468
a(g86
F51.493105917524616
tp469
a(g218
F51.88501626828327
tp470
a(g106
F51.936644135284865
tp471
a(g170
F51.965405597262944
tp472
a(g230
F51.99177985111569
tp473
a(g104
F52.20081452581752
tp474
a(g118
F52.47332181816409
tp475
a(g76
F52.82186805260571
tp476
a(g198
F53.07888571849519
tp477
a(g110
F53.288974159412014
tp478
a(g112
F53.288974159412014
tp479
a(g44
F53.83548786213134
tp480
a(g122
F54.37666686672478
tp481
a(g120
F54.46578115397069
tp482
a(g190
F55.07801736571905
tp483
a(g234
F55.478694183272374
tp484
a(g90
F55.96809415033511
tp485
a(g130
F56.378318529729825
tp486
a(g206
F56.38726896181534
tp487
a(g94
F57.76430832832708
tp488
a(g166
F58.746407799114955
tp489
a(g164
F59.725582770035224
tp490
a(g102
F59.76017497107488
tp491
a(g158
F60.84209593057189
tp492
a(g88
F61.90777304041826
tp493
a(g236
F62.19732552580356
tp494
a(g124
F62.86389780341316
tp495
a(g92
F65.72245010656746
tp496
aa(lp497
(g240
F46.02101029562232
tp498
a(g242
F46.02101029562232
tp499
a(g2
F46.38392155537248
tp500
a(g246
F47.37964855080181
tp501
a(g150
F49.82695763482086
tp502
a(g238
F50.793345448122025
tp503
a(g220
F53.26697525539827
tp504
a(g230
F53.685337954602545
tp505
a(g118
F53.711004222014886
tp506
a(g222
F53.8863315530665
tp507
a(g138
F54.27149461166181
tp508
a(g218
F55.77962642205858
tp509
a(g188
F55.82830059261387
tp510
a(g200
F56.41201727596568
tp511
a(g110
F56.69246883078453
tp512
a(g112
F56.69246883078453
tp513
a(g234
F57.04187121406848
tp514
a(g206
F57.39608940127287
tp515
a(g228
F57.57528192889054
tp516
a(g170
F57.584909664861506
tp517
a(g98
F57.647517888749626
tp518
a(g76
F57.78560722836878
tp519
a(g106
F57.84588511734315
tp520
a(g144
F57.96205196803412
tp521
a(g226
F58.081280379453986
tp522
a(g146
F58.220727245919235
tp523
a(g224
F58.96875550984994
tp524
a(g122
F59.0230864478335
tp525
a(g120
F59.051019363702494
tp526
a(g72
F59.199823766770905
tp527
a(g100
F59.55990210738709
tp528
a(g18
F60.12338244003056
tp529
a(g164
F60.23857943261166
tp530
a(g116
F60.603703193007
tp531
a(g78
F60.83557607416705
tp532
a(g80
F60.94675778563068
tp533
a(g90
F61.05017660254845
tp534
a(g4
F61.105767548963186
tp535
a(g214
F61.48817086270655
tp536
a(g6
F61.66746010749414
tp537
a(g50
F61.71387852417965
tp538
a(g128
F61.78563080074962
tp539
a(g148
F62.3242485969935
tp540
a(g46
F62.40572105979486
tp541
a(g68
F62.433404642449865
tp542
a(g236
F62.46559624356288
tp543
a(g40
F62.51216153206569
tp544
a(g42
F62.68806320396082
tp545
a(g10
F62.80689178467099
tp546
a(g28
F62.8180655485937
tp547
a(g74
F62.87013912446677
tp548
a(g130
F62.88021258758144
tp549
a(g30
F63.17558427063158
tp550
a(g196
F63.19347509579613
tp551
a(g198
F63.4859654073286
tp552
a(g22
F63.6126519804736
tp553
a(g38
F63.748656650904046
tp554
a(g180
F63.851362904657336
tp555
a(g70
F63.913550854871076
tp556
a(g204
F64.14976245319035
tp557
a(g114
F64.23783397726143
tp558
a(g62
F64.30968844261999
tp559
a(g212
F64.31792050162994
tp560
a(g8
F64.35500144142917
tp561
a(g48
F64.46675526038604
tp562
a(g84
F64.47994771816218
tp563
a(g52
F64.55693590393126
tp564
a(g64
F64.68274426139477
tp565
a(g132
F65.02952679084609
tp566
a(g186
F65.04017460398295
tp567
a(g104
F65.07774438863602
tp568
a(g162
F65.09160347426486
tp569
a(g140
F65.1384892346567
tp570
a(g26
F65.17341058791003
tp571
a(g172
F65.18411324466891
tp572
a(g12
F65.25950863882231
tp573
a(g96
F65.2722742521422
tp574
a(g16
F65.32365199956877
tp575
a(g34
F65.40340030741098
tp576
a(g232
F65.44084956942905
tp577
a(g14
F65.62062768691395
tp578
a(g168
F65.63208949088252
tp579
a(g32
F65.69365871004646
tp580
a(g66
F65.853811384456
tp581
a(g108
F65.94970426876417
tp582
a(g136
F66.08560730197516
tp583
a(g54
F66.15828816730343
tp584
a(g56
F66.15828816730343
tp585
a(g58
F66.15828816730343
tp586
a(g60
F66.15828816730343
tp587
a(g154
F66.34152296347108
tp588
a(g152
F66.38677879046715
tp589
a(g184
F66.49090369921218
tp590
a(g156
F66.55275227937784
tp591
a(g24
F66.58388023672788
tp592
a(g190
F67.00307812159276
tp593
a(g176
F67.1289314790029
tp594
a(g178
F67.28220947881742
tp595
a(g126
F67.37439378691502
tp596
a(g82
F67.49515394841941
tp597
a(g102
F67.70973328015155
tp598
a(g36
F67.72112698359552
tp599
a(g182
F68.57671132924477
tp600
a(g142
F68.57758330589957
tp601
a(g134
F68.82834976678093
tp602
a(g124
F69.02103602166186
tp603
a(g192
F69.34994596706991
tp604
a(g20
F69.6264126727521
tp605
a(g244
F69.79109653314272
tp606
a(g44
F70.26386263729475
tp607
a(g160
F70.76641007410461
tp608
a(g216
F72.63171538694337
tp609
a(g174
F72.78037064354564
tp610
a(g88
F72.80660886886703
tp611
a(g202
F72.90267072668144
tp612
a(g210
F73.98152795935903
tp613
a(g86
F74.0749549740016
tp614
a(g158
F74.23110789846494
tp615
a(g166
F74.54670882149924
tp616
a(g194
F77.12834424026673
tp617
a(g94
F81.203856321742
tp618
aa(lp619
(g106
F42.839558801098704
tp620
a(g150
F43.69645992780303
tp621
a(g234
F43.88808660700626
tp622
a(g188
F44.013107868050916
tp623
a(g146
F44.19591078438302
tp624
a(g206
F44.640457956208806
tp625
a(g88
F45.15564912114161
tp626
a(g130
F45.19896082852462
tp627
a(g200
F45.425189956588696
tp628
a(g240
F45.493716689142914
tp629
a(g242
F45.493716689142914
tp630
a(g164
F45.707544903490444
tp631
a(g170
F46.192973501996384
tp632
a(g104
F46.80999292049296
tp633
a(g226
F47.891304378698166
tp634
a(g110
F48.18347556628254
tp635
a(g112
F48.18347556628254
tp636
a(g118
F48.289105131141866
tp637
a(g220
F48.47876099753314
tp638
a(g230
F48.7237754827422
tp639
a(g222
F48.77360454334473
tp640
a(g228
F48.80261164266119
tp641
a(g190
F49.869637063078784
tp642
a(g90
F50.381385320421614
tp643
a(g124
F51.055356448860884
tp644
a(g76
F51.585960921609015
tp645
a(g214
F52.50757080802589
tp646
a(g198
F52.64795235186969
tp647
a(g236
F52.889839121012834
tp648
a(g158
F53.73407158535811
tp649
a(g224
F54.05593008708026
tp650
a(g128
F54.36828335345385
tp651
a(g120
F54.37031271602739
tp652
a(g116
F54.509036878276206
tp653
a(g122
F54.67781901851778
tp654
a(g2
F57.42261980692821
tp655
a(g108
F57.54301556875666
tp656
a(g44
F58.45593059679615
tp657
a(g132
F59.125715839137285
tp658
a(g98
F61.00159301260837
tp659
a(g216
F62.30708550812204
tp660
a(g204
F62.41672496910902
tp661
a(g196
F62.55339938677706
tp662
a(g246
F62.81165971997352
tp663
a(g66
F62.93039663042805
tp664
a(g192
F63.22519147524004
tp665
a(g218
F63.521105060933714
tp666
a(g144
F63.601853882395375
tp667
a(g70
F64.03258905427984
tp668
a(g182
F64.10714600164023
tp669
a(g244
F64.71097213947672
tp670
a(g72
F65.4059022461342
tp671
a(g154
F65.51644515834992
tp672
a(g142
F65.6835643144394
tp673
a(g176
F65.689230867085
tp674
a(g178
F66.06109082684978
tp675
a(g162
F66.12323794625496
tp676
a(g186
F66.13997537329942
tp677
a(g86
F66.55766977818115
tp678
a(g50
F66.6339748726462
tp679
a(g166
F67.08471681899012
tp680
a(g138
F67.13285195003422
tp681
a(g102
F67.19700735408657
tp682
a(g100
F67.36862503099017
tp683
a(g168
F67.60805581783845
tp684
a(g238
F67.73013141543375
tp685
a(g74
F67.76464716800474
tp686
a(g134
F67.78087751546737
tp687
a(g156
F68.5937352195566
tp688
a(g46
F68.69427705232425
tp689
a(g68
F68.78205149013559
tp690
a(g20
F69.34591421610457
tp691
a(g26
F69.34701876692725
tp692
a(g84
F69.4046948930729
tp693
a(g232
F69.85080640749027
tp694
a(g202
F70.12559531338897
tp695
a(g152
F70.1644710046241
tp696
a(g78
F70.3417684136235
tp697
a(g32
F70.46411773492588
tp698
a(g80
F70.46858151130593
tp699
a(g48
F70.47369448269332
tp700
a(g184
F70.74074004856473
tp701
a(g136
F70.78426712675581
tp702
a(g4
F71.17043145396966
tp703
a(g30
F71.22969947334494
tp704
a(g18
F71.32108429656728
tp705
a(g212
F71.81245851632795
tp706
a(g52
F71.82420351160576
tp707
a(g6
F71.87616220800183
tp708
a(g28
F72.72662374252889
tp709
a(g38
F73.56229545233941
tp710
a(g172
F73.60915590437196
tp711
a(g62
F73.73524123508709
tp712
a(g194
F73.73706453473045
tp713
a(g160
F73.91928920206658
tp714
a(g114
F73.92859760117895
tp715
a(g10
F74.11080032262396
tp716
a(g40
F74.12321806241279
tp717
a(g140
F74.14204387787649
tp718
a(g12
F74.78187473186162
tp719
a(g22
F75.11381244078149
tp720
a(g126
F75.65895321477635
tp721
a(g24
F76.86269289785827
tp722
a(g42
F77.15548493767255
tp723
a(g174
F77.21426045900522
tp724
a(g64
F77.88735631572163
tp725
a(g8
F77.97157720619245
tp726
a(g96
F78.66063668364815
tp727
a(g34
F79.2796688766752
tp728
a(g210
F79.35234080113318
tp729
a(g36
F79.42771180130255
tp730
a(g82
F79.65687060957134
tp731
a(g180
F79.73908277738832
tp732
a(g14
F79.77864642045017
tp733
a(g16
F80.78902024054602
tp734
a(g148
F81.04991533677978
tp735
a(g54
F81.934082970493
tp736
a(g56
F81.934082970493
tp737
a(g58
F81.934082970493
tp738
a(g60
F81.934082970493
tp739
aa(lp740
(g106
F42.04542195586775
tp741
a(g150
F42.97494389729539
tp742
a(g206
F43.5098434863456
tp743
a(g234
F43.739819603085095
tp744
a(g146
F44.04281821685567
tp745
a(g130
F44.41515264594162
tp746
a(g188
F44.617640818963075
tp747
a(g240
F44.81881126253894
tp748
a(g242
F44.81881126253894
tp749
a(g88
F45.23221286723428
tp750
a(g164
F45.258704747330356
tp751
a(g230
F45.426967487324276
tp752
a(g170
F45.77262209129236
tp753
a(g104
F45.797768498715
tp754
a(g200
F46.022461536630296
tp755
a(g110
F47.23586610425494
tp756
a(g112
F47.23586610425494
tp757
a(g220
F47.395288614972856
tp758
a(g226
F47.95375713440853
tp759
a(g222
F47.98748749387255
tp760
a(g118
F48.13238462808519
tp761
a(g228
F48.65054351223189
tp762
a(g90
F48.68679179776891
tp763
a(g190
F49.58180798875847
tp764
a(g76
F50.31166536963158
tp765
a(g236
F50.6254547326519
tp766
a(g124
F51.30164715137661
tp767
a(g116
F52.03879654115414
tp768
a(g198
F52.13463572260536
tp769
a(g158
F52.407435598065064
tp770
a(g214
F52.408880330465365
tp771
a(g224
F53.108056219508065
tp772
a(g120
F53.93549294956179
tp773
a(g122
F54.23717652565193
tp774
a(g128
F54.83311742513191
tp775
a(g108
F56.409806786495224
tp776
a(g2
F57.44792898199767
tp777
a(g44
F58.62399879275603
tp778
a(g132
F60.45268772460339
tp779
a(g98
F60.95718789828838
tp780
a(g196
F61.332420469970614
tp781
a(g216
F61.38570408709887
tp782
a(g246
F61.654051763105166
tp783
a(g204
F61.931729822869215
tp784
a(g144
F61.96895293690685
tp785
a(g66
F62.28179752205199
tp786
a(g218
F62.51869015123509
tp787
a(g182
F62.98868231495962
tp788
a(g192
F63.0808947255414
tp789
a(g70
F63.41704109352435
tp790
a(g176
F64.1644677644086
tp791
a(g154
F64.36490661602798
tp792
a(g178
F64.45513388465753
tp793
a(g162
F64.47326939220133
tp794
a(g244
F65.29417037326179
tp795
a(g186
F65.37310010359973
tp796
a(g50
F65.53513186672933
tp797
a(g168
F66.04918391181684
tp798
a(g72
F66.13794032159669
tp799
a(g142
F66.2414417726174
tp800
a(g102
F66.3955991748401
tp801
a(g166
F66.67946703862211
tp802
a(g238
F66.71311938266925
tp803
a(g100
F66.73646701427529
tp804
a(g86
F66.81262359193052
tp805
a(g74
F67.21561826379765
tp806
a(g138
F67.22052040823534
tp807
a(g156
F67.46358526657298
tp808
a(g134
F67.8104298318839
tp809
a(g232
F68.34265797606668
tp810
a(g152
F68.37149183040705
tp811
a(g46
F68.48624722712285
tp812
a(g20
F68.60338570160218
tp813
a(g48
F69.37782961544067
tp814
a(g184
F69.40076329793237
tp815
a(g136
F69.57162458334793
tp816
a(g32
F69.72685230405801
tp817
a(g84
F69.92495073987138
tp818
a(g212
F70.00389391495456
tp819
a(g52
F70.51878014626337
tp820
a(g68
F70.69137395539808
tp821
a(g26
F71.02211586482589
tp822
a(g126
F71.36567024257945
tp823
a(g202
F71.48756717015294
tp824
a(g18
F71.66027806997391
tp825
a(g114
F71.9352773551818
tp826
a(g78
F71.99822089699073
tp827
a(g62
F72.0663693973328
tp828
a(g38
F72.07364611910097
tp829
a(g6
F72.08079038860356
tp830
a(g194
F72.10400728576379
tp831
a(g80
F72.45654322812163
tp832
a(g172
F72.5388188336583
tp833
a(g40
F72.60915707408199
tp834
a(g30
F72.67513527111979
tp835
a(g4
F72.75308747334554
tp836
a(g140
F73.05377872788901
tp837
a(g10
F73.68620143262127
tp838
a(g12
F73.99679415635097
tp839
a(g28
F74.13886448623904
tp840
a(g174
F74.74650734941073
tp841
a(g160
F74.87787998817873
tp842
a(g22
F75.13481323552612
tp843
a(g8
F76.54539376993716
tp844
a(g96
F77.94923269812945
tp845
a(g64
F78.15525943487617
tp846
a(g42
F78.17199803873227
tp847
a(g24
F78.26395680621279
tp848
a(g180
F78.2735389817484
tp849
a(g82
F78.43931477233602
tp850
a(g36
F78.56226157370031
tp851
a(g210
F78.5776238264575
tp852
a(g14
F79.22089637399371
tp853
a(g34
F79.83929629734534
tp854
a(g16
F80.20074376204205
tp855
a(g148
F80.61898153768621
tp856
a(g54
F81.934082970493
tp857
a(g56
F81.934082970493
tp858
a(g58
F81.934082970493
tp859
aa(lp860
(g106
F42.04542195586775
tp861
a(g150
F42.97494389729539
tp862
a(g206
F43.5098434863456
tp863
a(g234
F43.739819603085095
tp864
a(g146
F44.04281821685567
tp865
a(g130
F44.41515264594162
tp866
a(g188
F44.617640818963075
tp867
a(g240
F44.81881126253894
tp868
a(g242
F44.81881126253894
tp869
a(g88
F45.23221286723428
tp870
a(g164
F45.258704747330356
tp871
a(g230
F45.426967487324276
tp872
a(g170
F45.77262209129236
tp873
a(g104
F45.797768498715
tp874
a(g200
F46.022461536630296
tp875
a(g110
F47.23586610425494
tp876
a(g112
F47.23586610425494
tp877
a(g220
F47.395288614972856
tp878
a(g226
F47.95375713440853
tp879
a(g222
F47.98748749387255
tp880
a(g118
F48.13238462808519
tp881
a(g228
F48.65054351223189
tp882
a(g90
F48.68679179776891
tp883
a(g190
F49.58180798875847
tp884
a(g76
F50.31166536963158
tp885
a(g236
F50.6254547326519
tp886
a(g124
F51.30164715137661
tp887
a(g116
F52.03879654115414
tp888
a(g198
F52.13463572260536
tp889
a(g158
F52.407435598065064
tp890
a(g214
F52.408880330465365
tp891
a(g224
F53.108056219508065
tp892
a(g120
F53.93549294956179
tp893
a(g122
F54.23717652565193
tp894
a(g128
F54.83311742513191
tp895
a(g108
F56.409806786495224
tp896
a(g2
F57.44792898199767
tp897
a(g44
F58.62399879275603
tp898
a(g132
F60.45268772460339
tp899
a(g98
F60.95718789828838
tp900
a(g196
F61.332420469970614
tp901
a(g216
F61.38570408709887
tp902
a(g246
F61.654051763105166
tp903
a(g204
F61.931729822869215
tp904
a(g144
F61.96895293690685
tp905
a(g66
F62.28179752205199
tp906
a(g218
F62.51869015123509
tp907
a(g182
F62.98868231495962
tp908
a(g192
F63.0808947255414
tp909
a(g70
F63.41704109352435
tp910
a(g176
F64.1644677644086
tp911
a(g154
F64.36490661602798
tp912
a(g178
F64.45513388465753
tp913
a(g162
F64.47326939220133
tp914
a(g244
F65.29417037326179
tp915
a(g186
F65.37310010359973
tp916
a(g50
F65.53513186672933
tp917
a(g168
F66.04918391181684
tp918
a(g72
F66.13794032159669
tp919
a(g142
F66.2414417726174
tp920
a(g102
F66.3955991748401
tp921
a(g166
F66.67946703862211
tp922
a(g238
F66.71311938266925
tp923
a(g100
F66.73646701427529
tp924
a(g86
F66.81262359193052
tp925
a(g74
F67.21561826379765
tp926
a(g138
F67.22052040823534
tp927
a(g156
F67.46358526657298
tp928
a(g134
F67.8104298318839
tp929
a(g232
F68.34265797606668
tp930
a(g152
F68.37149183040705
tp931
a(g46
F68.48624722712285
tp932
a(g20
F68.60338570160218
tp933
a(g48
F69.37782961544067
tp934
a(g184
F69.40076329793237
tp935
a(g136
F69.57162458334793
tp936
a(g32
F69.72685230405801
tp937
a(g84
F69.92495073987138
tp938
a(g212
F70.00389391495456
tp939
a(g52
F70.51878014626337
tp940
a(g68
F70.69137395539808
tp941
a(g26
F71.02211586482589
tp942
a(g126
F71.36567024257945
tp943
a(g202
F71.48756717015294
tp944
a(g18
F71.66027806997391
tp945
a(g114
F71.9352773551818
tp946
a(g78
F71.99822089699073
tp947
a(g62
F72.0663693973328
tp948
a(g38
F72.07364611910097
tp949
a(g6
F72.08079038860356
tp950
a(g194
F72.10400728576379
tp951
a(g80
F72.45654322812163
tp952
a(g172
F72.5388188336583
tp953
a(g40
F72.60915707408199
tp954
a(g30
F72.67513527111979
tp955
a(g4
F72.75308747334554
tp956
a(g140
F73.05377872788901
tp957
a(g10
F73.68620143262127
tp958
a(g12
F73.99679415635097
tp959
a(g28
F74.13886448623904
tp960
a(g174
F74.74650734941073
tp961
a(g160
F74.87787998817873
tp962
a(g22
F75.13481323552612
tp963
a(g8
F76.54539376993716
tp964
a(g96
F77.94923269812945
tp965
a(g64
F78.15525943487617
tp966
a(g42
F78.17199803873227
tp967
a(g24
F78.26395680621279
tp968
a(g180
F78.2735389817484
tp969
a(g82
F78.43931477233602
tp970
a(g36
F78.56226157370031
tp971
a(g210
F78.5776238264575
tp972
a(g14
F79.22089637399371
tp973
a(g34
F79.83929629734534
tp974
a(g16
F80.20074376204205
tp975
a(g148
F80.61898153768621
tp976
a(g54
F81.934082970493
tp977
a(g56
F81.934082970493
tp978
aa(lp979
(g106
F42.04542195586775
tp980
a(g150
F42.97494389729539
tp981
a(g206
F43.5098434863456
tp982
a(g234
F43.739819603085095
tp983
a(g146
F44.04281821685567
tp984
a(g130
F44.41515264594162
tp985
a(g188
F44.617640818963075
tp986
a(g240
F44.81881126253894
tp987
a(g242
F44.81881126253894
tp988
a(g88
F45.23221286723428
tp989
a(g164
F45.258704747330356
tp990
a(g230
F45.426967487324276
tp991
a(g170
F45.77262209129236
tp992
a(g104
F45.797768498715
tp993
a(g200
F46.022461536630296
tp994
a(g110
F47.23586610425494
tp995
a(g112
F47.23586610425494
tp996
a(g220
F47.395288614972856
tp997
a(g226
F47.95375713440853
tp998
a(g222
F47.98748749387255
tp999
a(g118
F48.13238462808519
tp1000
a(g228
F48.65054351223189
tp1001
a(g90
F48.68679179776891
tp1002
a(g190
F49.58180798875847
tp1003
a(g76
F50.31166536963158
tp1004
a(g236
F50.6254547326519
tp1005
a(g124
F51.30164715137661
tp1006
a(g116
F52.03879654115414
tp1007
a(g198
F52.13463572260536
tp1008
a(g158
F52.407435598065064
tp1009
a(g214
F52.408880330465365
tp1010
a(g224
F53.108056219508065
tp1011
a(g120
F53.93549294956179
tp1012
a(g122
F54.23717652565193
tp1013
a(g128
F54.83311742513191
tp1014
a(g108
F56.409806786495224
tp1015
a(g2
F57.44792898199767
tp1016
a(g44
F58.62399879275603
tp1017
a(g132
F60.45268772460339
tp1018
a(g98
F60.95718789828838
tp1019
a(g196
F61.332420469970614
tp1020
a(g216
F61.38570408709887
tp1021
a(g246
F61.654051763105166
tp1022
a(g204
F61.931729822869215
tp1023
a(g144
F61.96895293690685
tp1024
a(g66
F62.28179752205199
tp1025
a(g218
F62.51869015123509
tp1026
a(g182
F62.98868231495962
tp1027
a(g192
F63.0808947255414
tp1028
a(g70
F63.41704109352435
tp1029
a(g176
F64.1644677644086
tp1030
a(g154
F64.36490661602798
tp1031
a(g178
F64.45513388465753
tp1032
a(g162
F64.47326939220133
tp1033
a(g244
F65.29417037326179
tp1034
a(g186
F65.37310010359973
tp1035
a(g50
F65.53513186672933
tp1036
a(g168
F66.04918391181684
tp1037
a(g72
F66.13794032159669
tp1038
a(g142
F66.2414417726174
tp1039
a(g102
F66.3955991748401
tp1040
a(g166
F66.67946703862211
tp1041
a(g238
F66.71311938266925
tp1042
a(g100
F66.73646701427529
tp1043
a(g86
F66.81262359193052
tp1044
a(g74
F67.21561826379765
tp1045
a(g138
F67.22052040823534
tp1046
a(g156
F67.46358526657298
tp1047
a(g134
F67.8104298318839
tp1048
a(g232
F68.34265797606668
tp1049
a(g152
F68.37149183040705
tp1050
a(g46
F68.48624722712285
tp1051
a(g20
F68.60338570160218
tp1052
a(g48
F69.37782961544067
tp1053
a(g184
F69.40076329793237
tp1054
a(g136
F69.57162458334793
tp1055
a(g32
F69.72685230405801
tp1056
a(g84
F69.92495073987138
tp1057
a(g212
F70.00389391495456
tp1058
a(g52
F70.51878014626337
tp1059
a(g68
F70.69137395539808
tp1060
a(g26
F71.02211586482589
tp1061
a(g126
F71.36567024257945
tp1062
a(g202
F71.48756717015294
tp1063
a(g18
F71.66027806997391
tp1064
a(g114
F71.9352773551818
tp1065
a(g78
F71.99822089699073
tp1066
a(g62
F72.0663693973328
tp1067
a(g38
F72.07364611910097
tp1068
a(g6
F72.08079038860356
tp1069
a(g194
F72.10400728576379
tp1070
a(g80
F72.45654322812163
tp1071
a(g172
F72.5388188336583
tp1072
a(g40
F72.60915707408199
tp1073
a(g30
F72.67513527111979
tp1074
a(g4
F72.75308747334554
tp1075
a(g140
F73.05377872788901
tp1076
a(g10
F73.68620143262127
tp1077
a(g12
F73.99679415635097
tp1078
a(g28
F74.13886448623904
tp1079
a(g174
F74.74650734941073
tp1080
a(g160
F74.87787998817873
tp1081
a(g22
F75.13481323552612
tp1082
a(g8
F76.54539376993716
tp1083
a(g96
F77.94923269812945
tp1084
a(g64
F78.15525943487617
tp1085
a(g42
F78.17199803873227
tp1086
a(g24
F78.26395680621279
tp1087
a(g180
F78.2735389817484
tp1088
a(g82
F78.43931477233602
tp1089
a(g36
F78.56226157370031
tp1090
a(g210
F78.5776238264575
tp1091
a(g14
F79.22089637399371
tp1092
a(g34
F79.83929629734534
tp1093
a(g16
F80.20074376204205
tp1094
a(g148
F80.61898153768621
tp1095
a(g54
F81.934082970493
tp1096
aa.