(lp0
(dp1
S'probIndexinLevel'
p2
F2.575834453
sS'ruleScoreEXP'
p3
F7.303668042
sS'cumul_easyProbAlternate'
p4
F1.30361396
sS'NewLevel'
p5
I0
sS'MorphCount'
p6
F0.03845004
sS'difficultProblemCountWE'
p7
F6.881755707
sS'difficultProblemCountSolved'
p8
F7.495904196
sS'cumul_PrightAppRatio'
p9
F6.403310327
sS'cumul_difficultProblemCountSolved'
p10
F4.619385093
sS'cumul_WrongSemanticsApp'
p11
I0
sS'OptionalCount'
p12
I0
sS'cumul_RrightAppRatio'
p13
F1.007372656
sS'easyProblemCountSolved'
p14
F3.031319919
sS'TotalWETime'
p15
F1.003418917
sS'cumul_hintRatio'
p16
F0.903856905
sS'cumul_F1Score'
p17
F6.494549579
sS'symbolicRepresentationCount'
p18
I0
sS'ruleScoreHS'
p19
F5.417096267
sS'cumul_NonPSelements'
p20
I0
sS'Level'
p21
F7.820938772
sS'cumul_englishSymbolicSwitchCount'
p22
I0
sS'cumul_UseWindowInfo'
p23
I0
sS'RrightAppRatio'
p24
I0
sS'FDActionCount'
p25
I0
sS'ruleScoreASSOC'
p26
F2.850218378
sS'ruleScoreTAUT'
p27
I0
sS'cumul_actionCount'
p28
F4.059552283
sS'CurrPro_avgProbTimePS'
p29
F0.235704528
sS'ruleScoreIMPL'
p30
F5.258450181
sS'cumul_easyProblemCountWE'
p31
I0
sS'cumul_InterfaceErrorCount'
p32
I0
sS'cumul_OptionalCount'
p33
I0
sS'hintRatio'
p34
I0
sS'cumul_easyProblemCountSolved'
p35
F1.663910257
sS'CurrPro_avgProbTimeWE'
p36
F0.619830937
sS'CurrPro_medianProbTime'
p37
F0.995265779
sS'ruleScoreCONTRA'
p38
I0
sS'cumul_DirectProofActionCount'
p39
F3.431978762
sS'cumul_InDirectProofActionCount'
p40
I0
sS'cumul_probIndexinLevel'
p41
F2.575834453
sS'WrongSemanticsApp'
p42
F0.05072746
sS'ruleScoreCD'
p43
F3.43210214
sS'TotalPSTime'
p44
F2.912579876
sS'Interaction'
p45
I0
sS'ruleScoreDIST'
p46
F2.833356075
sS'CurrPro_avgProbTimeDeviationPS'
p47
F2.383172376
sS'ruleScoreCONJ'
p48
F5.862699139
sS'WrongSyntaxApp'
p49
I0
sS'easyProbAlternate'
p50
F1.30361396
sS'ruleScoreCOM'
p51
I0
sS'cumul_SystemInfoHintCount'
p52
I0
sS'ruleScoreSIMP'
p53
F0.041532362
sS'TotalTime'
p54
F2.62681022
sS'SeenWEinLevel'
p55
F0.177936327
sS'cumul_WrongSyntaxApp'
p56
I0
sS'cumul_deletedApp'
p57
I0
sS'UseCount'
p58
I0
sS'cumul_BDActionCount'
p59
I0
sS'easyProblemCountWE'
p60
I0
sS'ruleScoreMP'
p61
F4.935938483
sS'ruleScoreMT'
p62
F2.785215099
sS'cumul_WrongApp'
p63
I0
sS'PreviousStepClickCountWE'
p64
F0.230447671
sS'ruleScoreADD'
p65
I0
sS'cumul_PreviousStepClickCountWE'
p66
I0
sS'DirectProofActionCount'
p67
I0
sS'cumul_Interaction'
p68
F4.286122179
sS'UseWindowInfo'
p69
I0
sS'ruleScoreEQUIV'
p70
I0
sS'probAlternate'
p71
F1.30361396
sS'cumul_HoverHintCount'
p72
I0
sS'cumul_probAlternate'
p73
F1.30361396
sS'cumul_avgstepTimeWE'
p74
F5.109813896
sS'stepTimeDeviation'
p75
F4.760824488
sS'cumul_UseCount'
p76
I0
sS'SystemInfoHintCount'
p77
I0
sS'cumul_NextStepClickCountWE'
p78
I0
sS'cumul_symbolicRepresentationCount'
p79
I0
sS'probIndexPSinLevel'
p80
F1.879300632
sS'cumul_AppCount'
p81
F3.822805262
sS'cumul_avgstepTimePS'
p82
F2.718134207
sS'PrightAppRatio'
p83
F1.282115551
sS'PrepCount'
p84
I0
sS'ruleScoreDN'
p85
F6.94800375
sS'actionCount'
p86
I0
sS'cumul_TotalWETime'
p87
F0.29417682
sS'RuleTypesCount'
p88
F5.235615925
sS'NonPSelements'
p89
I0
sS'cumul_BlankRatio'
p90
F2.975444351
sS'HoverHintCount'
p91
I0
sS'ruleScoreABS'
p92
F5.839284137
sS'RightApp'
p93
I0
sS'CurrPro_NumProbRule'
p94
F7.742928577
sS'CurrPro_avgProbTimeDeviationWE'
p95
F0.619830937
sS'cumul_RightApp'
p96
I0
sS'InterfaceErrorCount'
p97
I0
sS'AppCount'
p98
I0
sS'cumul_TotalPSTime'
p99
F9.119785008
sS'F1Score'
p100
F3.187246338
sS'cumul_FDActionCount'
p101
F4.03149079
sS'cumul_AppRatio'
p102
F2.97423847
sS'cumul_hintCount'
p103
I0
sS'WrongApp'
p104
I0
sS'AppRatio'
p105
F0.4518643
sS'BlankRatio'
p106
F0.4518643
sS'cumul_MorphCount'
p107
I0
sS'hintCount'
p108
I0
sS'cumul_difficultProblemCountWE'
p109
F8.958987936
sS'BDActionCount'
p110
I0
sS'ruleScoreDS'
p111
F4.764330022
sS'InDirectProofActionCount'
p112
F0.046711735
sS'ruleScoreDEM'
p113
F4.599319234
sS'englishSymbolicSwitchCount'
p114
F0.030229511
sS'avgstepTimePS'
p115
I0
sS'avgstepTime'
p116
I0
sS'cumul_RuleTypesCount'
p117
F0.523493143
sS'cumul_TotalTime'
p118
F5.692384211
sS'SolvedPSInLevel'
p119
I0
sS'CurrPro_avgProbTime'
p120
F2.291045266
sS'deletedApp'
p121
I0
sS'cumul_PrepCount'
p122
I0
sS'NextStepClickCountWE'
p123
F2.831811541
sS'probDiff'
p124
F8.605472275
sS'cumul_avgstepTime'
p125
F2.703315972
sa(dp126
S'probIndexinLevel'
p127
cnumpy.core.multiarray
scalar
p128
(cnumpy
dtype
p129
(S'f8'
p130
I0
I1
tp131
Rp132
(I3
S'<'
p133
NNNI-1
I-1
I0
tp134
bS'\xd2\xd78-\xd7\x04;@'
p135
tp136
Rp137
sS'ruleScoreEXP'
p138
g128
(g132
S' C\x15#\x844-@'
p139
tp140
Rp141
sS'cumul_easyProbAlternate'
p142
g128
(g132
S'fG\xdb\xafr\xec$@'
p143
tp144
Rp145
sS'NewLevel'
p146
g128
(g132
S'\xfd|\xc9\xb6\x81b0@'
p147
tp148
Rp149
sS'MorphCount'
p150
g128
(g132
S'\xfc\x9d\x08\x9c\x97\x8c"@'
p151
tp152
Rp153
sS'difficultProblemCountWE'
p154
g128
(g132
S'\x997\xe8N\xc0\xc40@'
p155
tp156
Rp157
sS'difficultProblemCountSolved'
p158
g128
(g132
S'$\x1bs\xa1v\xe4E@'
p159
tp160
Rp161
sS'cumul_PrightAppRatio'
p162
g128
(g132
S'\xb3@\xaf`\x87\xa3,@'
p163
tp164
Rp165
sS'cumul_difficultProblemCountSolved'
p166
g128
(g132
S'\xd01HK\x02\x830@'
p167
tp168
Rp169
sS'cumul_WrongSemanticsApp'
p170
g128
(g132
S'\xf0x{1d\xed(@'
p171
tp172
Rp173
sS'OptionalCount'
p174
g128
(g132
S'\x10<\x11<\x9c\xba$@'
p175
tp176
Rp177
sS'cumul_RrightAppRatio'
p178
g128
(g132
S'\xc4P{\x92\xe7\x03,@'
p179
tp180
Rp181
sS'easyProblemCountSolved'
p182
g128
(g132
S'>\xf7~\xca\xdd\xf3*@'
p183
tp184
Rp185
sS'TotalWETime'
p186
g128
(g132
S'{\xe7!\xd6I1-@'
p187
tp188
Rp189
sS'cumul_hintRatio'
p190
g128
(g132
S'\x06\xe75\x02\xc3\x1a0@'
p191
tp192
Rp193
sS'cumul_F1Score'
p194
g128
(g132
S'un\x0f?\xa3>+@'
p195
tp196
Rp197
sS'symbolicRepresentationCount'
p198
g128
(g132
S'\x8f\xd5\x07\xb9\xafR4@'
p199
tp200
Rp201
sS'ruleScoreHS'
p202
g128
(g132
S"'E(\xe0\xc2i%@"
p203
tp204
Rp205
sS'cumul_NonPSelements'
p206
g128
(g132
S'\xf9\xaeJG!\xce$@'
p207
tp208
Rp209
sS'Level'
p210
g128
(g132
S'\xa8F}\xbb\xe2-9@'
p211
tp212
Rp213
sS'hintCount'
p214
g128
(g132
S' Q\x95D_\x07%@'
p215
tp216
Rp217
sS'cumul_UseWindowInfo'
p218
g128
(g132
S'\x81C\x1dHhI1@'
p219
tp220
Rp221
sS'RrightAppRatio'
p222
g128
(g132
S'mR\\\xd6_\xba$@'
p223
tp224
Rp225
sS'FDActionCount'
p226
g128
(g132
S'\xa7\x81\x95m\xf4\xae$@'
p227
tp228
Rp229
sS'ruleScoreASSOC'
p230
g128
(g132
S'\xb8 \xb4_\xb2})@'
p231
tp232
Rp233
sS'ruleScoreTAUT'
p234
g128
(g132
S'\x8a\xed;U\xfd\xec3@'
p235
tp236
Rp237
sS'cumul_actionCount'
p238
g128
(g132
S'~X(~\xafg(@'
p239
tp240
Rp241
sS'CurrPro_avgProbTimePS'
p242
g128
(g132
S'W\xd2I\xb6\xb8\xdc*@'
p243
tp244
Rp245
sS'ruleScoreIMPL'
p246
g128
(g132
S'\x06\xdeJd\xdfy%@'
p247
tp248
Rp249
sS'cumul_easyProblemCountWE'
p250
g128
(g132
S'\xfeU7\xfe\xf8\xc46@'
p251
tp252
Rp253
sS'cumul_InterfaceErrorCount'
p254
g128
(g132
S'\x03@\xa8\xa3\xd6\xee(@'
p255
tp256
Rp257
sS'hintRatio'
p258
g128
(g132
S"\x10\xfc\x0c\xad\x03R'@"
p259
tp260
Rp261
sS'cumul_easyProblemCountSolved'
p262
g128
(g132
S'\x95\x82Z6\xb3r5@'
p263
tp264
Rp265
sS'CurrPro_avgProbTimeWE'
p266
g128
(g132
S'\x1a\x16z\x90ne)@'
p267
tp268
Rp269
sS'CurrPro_medianProbTime'
p270
g128
(g132
S"\x179\xf3\x1e'\xad$@"
p271
tp272
Rp273
sS'ruleScoreCONTRA'
p274
g128
(g132
S'X\xccl\x87 \xff$@'
p275
tp276
Rp277
sS'cumul_DirectProofActionCount'
p278
g128
(g132
S'vY\xd2t1\x8c(@'
p279
tp280
Rp281
sS'ruleScoreDS'
p282
g128
(g132
S'\xa7\xa1\xcf\xa7)>-@'
p283
tp284
Rp285
sS'cumul_RuleTypesCount'
p286
g128
(g132
S'@M\xb9.\xaa.2@'
p287
tp288
Rp289
sS'WrongSemanticsApp'
p290
g128
(g132
S'\x9bA\xa9(\xb5c"@'
p291
tp292
Rp293
sS'ruleScoreCD'
p294
g128
(g132
S'\xd0/7\x91\x17 ,@'
p295
tp296
Rp297
sS'TotalPSTime'
p298
g128
(g132
S'J\xd8^\xa0B\x82+@'
p299
tp300
Rp301
sS'cumul_englishSymbolicSwitchCount'
p302
g128
(g132
S'\xd1\xe4\xa9\xd5\x1a\xfb(@'
p303
tp304
Rp305
sS'Interaction'
p306
g128
(g132
S'\xf5\xd9<\x11\n5"@'
p307
tp308
Rp309
sS'ruleScoreDIST'
p310
g128
(g132
S'd\xe3ybMi$@'
p311
tp312
Rp313
sS'CurrPro_avgProbTimeDeviationPS'
p314
g128
(g132
S"\x1bs\xbdY'L+@"
p315
tp316
Rp317
sS'ruleScoreCONJ'
p318
g128
(g132
S'~=a\xd1\x05\xb1#@'
p319
tp320
Rp321
sS'WrongSyntaxApp'
p322
g128
(g132
S'oR\r[\x1f\xbc$@'
p323
tp324
Rp325
sS'easyProbAlternate'
p326
g128
(g132
S'fG\xdb\xafr\xec$@'
p327
tp328
Rp329
sS'ruleScoreCOM'
p330
g128
(g132
S'B\xc4\x88\xd5\xe0\x822@'
p331
tp332
Rp333
sS'cumul_SystemInfoHintCount'
p334
g128
(g132
S'?\x0c\xca\xbf/\x02)@'
p335
tp336
Rp337
sS'ruleScoreSIMP'
p338
g128
(g132
S'd\x85\xc6M\xc6\xdf4@'
p339
tp340
Rp341
sS'NextStepClickCountWE'
p342
g128
(g132
S'\xcd\xf7\x1a\xc6o\xee*@'
p343
tp344
Rp345
sS'SeenWEinLevel'
p346
g128
(g132
S'x}^\x9aKb/@'
p347
tp348
Rp349
sS'cumul_avgstepTimePS'
p350
g128
(g132
S'\x8a\x88\x83p\xefT.@'
p351
tp352
Rp353
sS'cumul_deletedApp'
p354
g128
(g132
S'\x86_\xc9\xb1oo,@'
p355
tp356
Rp357
sS'UseCount'
p358
g128
(g132
S'\xba\xbewIj;"@'
p359
tp360
Rp361
sS'cumul_BDActionCount'
p362
g128
(g132
S'\x02\x9c\xce\xbe\x94\xfa(@'
p363
tp364
Rp365
sS'easyProblemCountWE'
p366
g128
(g132
S'\xdcR\xcbPx\x80+@'
p367
tp368
Rp369
sS'ruleScoreMP'
p370
g128
(g132
S'\x87a4\xdeC\x0e.@'
p371
tp372
Rp373
sS'ruleScoreMT'
p374
g128
(g132
S'R\xb8^\x08\xc4\xc3#@'
p375
tp376
Rp377
sS'cumul_WrongApp'
p378
g128
(g132
S'\x1c\xc9\x10\xfb\x99\xeb(@'
p379
tp380
Rp381
sS'PreviousStepClickCountWE'
p382
g128
(g132
S"\x1c'as\xfc\x1a%@"
p383
tp384
Rp385
sS'ruleScoreADD'
p386
g128
(g132
S']\xb19\x17d\x1d*@'
p387
tp388
Rp389
sS'cumul_PreviousStepClickCountWE'
p390
g128
(g132
S'\xf0w\xfd\xe6\xc7\x0b+@'
p391
tp392
Rp393
sS'DirectProofActionCount'
p394
g128
(g132
S'&\x8bhhZ\xb4$@'
p395
tp396
Rp397
sS'cumul_Interaction'
p398
g128
(g132
S'\xa3\x8b\x82mwQ(@'
p399
tp400
Rp401
sS'UseWindowInfo'
p402
g128
(g132
S'S\xe7\x0cgk\x92$@'
p403
tp404
Rp405
sS'ruleScoreEQUIV'
p406
g128
(g132
S'\xdb\xcb\xb6=j\xe02@'
p407
tp408
Rp409
sS'CurrPro_NumProbRule'
p410
g128
(g132
S'\x1fkq\xc9=$3@'
p411
tp412
Rp413
sS'cumul_HoverHintCount'
p414
g128
(g132
S'\xe2g\xec\xfaT\xb3*@'
p415
tp416
Rp417
sS'cumul_probAlternate'
p418
g128
(g132
S'fG\xdb\xafr\xec$@'
p419
tp420
Rp421
sS'cumul_avgstepTimeWE'
p422
g128
(g132
S'\xb2x\t\xa8@\xac6@'
p423
tp424
Rp425
sS'stepTimeDeviation'
p426
g128
(g132
S'C\xfc\x934\xec\xd82@'
p427
tp428
Rp429
sS'TotalTime'
p430
g128
(g132
S'\x80k|UX-)@'
p431
tp432
Rp433
sS'SystemInfoHintCount'
p434
g128
(g132
S'\xbd\xc6Gk\xf7\xa6$@'
p435
tp436
Rp437
sS'cumul_NextStepClickCountWE'
p438
g128
(g132
S'\x14i=\xc6\xa3\x07/@'
p439
tp440
Rp441
sS'cumul_symbolicRepresentationCount'
p442
g128
(g132
S'\xfc\xad{\xce\x16~3@'
p443
tp444
Rp445
sS'probIndexPSinLevel'
p446
g128
(g132
S'd\x02\xb7\xf7<\xec/@'
p447
tp448
Rp449
sS'cumul_AppCount'
p450
g128
(g132
S'm\xb6@\xa0\xde`(@'
p451
tp452
Rp453
sS'cumul_WrongSyntaxApp'
p454
g128
(g132
S'zx\x19\x16\x03\xc0*@'
p455
tp456
Rp457
sS'PrightAppRatio'
p458
g128
(g132
S'\xcbB\xc5g\x888"@'
p459
tp460
Rp461
sS'PrepCount'
p462
g128
(g132
S'\xeahx\xbd@\xb4$@'
p463
tp464
Rp465
sS'ruleScoreDN'
p466
g128
(g132
S'\xa2\x04\x82\xa2<i;@'
p467
tp468
Rp469
sS'actionCount'
p470
g128
(g132
S'\xa7\x81\x95m\xf4\xae$@'
p471
tp472
Rp473
sS'cumul_InDirectProofActionCount'
p474
g128
(g132
S'\\\x9d\xa2#q\xf1(@'
p475
tp476
Rp477
sS'cumul_TotalWETime'
p478
g128
(g132
S'|\x12:\xe6D\xd40@'
p479
tp480
Rp481
sS'RuleTypesCount'
p482
g128
(g132
S']\xbe\xba_%y-@'
p483
tp484
Rp485
sS'NonPSelements'
p486
g128
(g132
S'\xf3\xb8\x14L\xdc\x19"@'
p487
tp488
Rp489
sS'cumul_BlankRatio'
p490
g128
(g132
S'\xf9tG"\xc1+*@'
p491
tp492
Rp493
sS'HoverHintCount'
p494
g128
(g132
S'\xc6\x1f\xd5\x96\xee\xc2$@'
p495
tp496
Rp497
sS'ruleScoreABS'
p498
g128
(g132
S'F\x87\x1e\xec\xff\x161@'
p499
tp500
Rp501
sS'RightApp'
p502
g128
(g132
S'\x19\xa4r\x7f\xf3="@'
p503
tp504
Rp505
sS'cumul_UseCount'
p506
g128
(g132
S'\xe0\x86\xee\xa3\xcb\xe9(@'
p507
tp508
Rp509
sS'probAlternate'
p510
g128
(g132
S'fG\xdb\xafr\xec$@'
p511
tp512
Rp513
sS'CurrPro_avgProbTimeDeviationWE'
p514
g128
(g132
S'\x1a\x16z\x90ne)@'
p515
tp516
Rp517
sS'cumul_RightApp'
p518
g128
(g132
S'\x06\xc0T}A\xc3&@'
p519
tp520
Rp521
sS'InterfaceErrorCount'
p522
g128
(g132
S'\xb7\xbby\xd7\xff)"@'
p523
tp524
Rp525
sS'AppCount'
p526
g128
(g132
S'\xf2\x15\xf4wY\xb1$@'
p527
tp528
Rp529
sS'F1Score'
p530
g128
(g132
S'\xc4\x96%k1s$@'
p531
tp532
Rp533
sS'cumul_FDActionCount'
p534
g128
(g132
S'\x96\xa6\x89`Em(@'
p535
tp536
Rp537
sS'cumul_AppRatio'
p538
g128
(g132
S'A\x06\xf8\xfb\xd5+*@'
p539
tp540
Rp541
sS'cumul_hintCount'
p542
g128
(g132
S'\xb3\x81\xe3"h`)@'
p543
tp544
Rp545
sS'WrongApp'
p546
g128
(g132
S'"\xa3X\x97\xaa\xba$@'
p547
tp548
Rp549
sS'AppRatio'
p550
g128
(g132
S'\xa2\x85g6\x9aW0@'
p551
tp552
Rp553
sS'BlankRatio'
p554
g128
(g132
S'\xa2\x85g6\x9aW0@'
p555
tp556
Rp557
sS'cumul_MorphCount'
p558
g128
(g132
S'i\xcfa\x7f\xac\xf2(@'
p559
tp560
Rp561
sS'cumul_difficultProblemCountWE'
p562
g128
(g132
S'\x8c0\xab\xcc=\x8bA@'
p563
tp564
Rp565
sS'BDActionCount'
p566
g128
(g132
S'+\xcf\x15\x86aA"@'
p567
tp568
Rp569
sS'cumul_OptionalCount'
p570
g128
(g132
S'\xca\x9d\xc8Z3\xeb&@'
p571
tp572
Rp573
sS'InDirectProofActionCount'
p574
g128
(g132
S'\xe4_O9\x8ca%@'
p575
tp576
Rp577
sS'ruleScoreDEM'
p578
g128
(g132
S'\x8e#\xbe\xac\xb0r$@'
p579
tp580
Rp581
sS'englishSymbolicSwitchCount'
p582
g128
(g132
S'\xc0hY5\xb4\xeb"@'
p583
tp584
Rp585
sS'avgstepTimePS'
p586
g128
(g132
S'/T4Qv\x98+@'
p587
tp588
Rp589
sS'avgstepTime'
p590
g128
(g132
S"0\xc5\x9f\xaa\xe4\x9a'@"
p591
tp592
Rp593
sS'cumul_probIndexinLevel'
p594
g128
(g132
S'\xd2\xd78-\xd7\x04;@'
p595
tp596
Rp597
sS'cumul_TotalTime'
p598
g128
(g132
S']\xf1\x06_~\xfa&@'
p599
tp600
Rp601
sS'SolvedPSInLevel'
p602
g128
(g132
S' Q\xd2\x94ks0@'
p603
tp604
Rp605
sS'CurrPro_avgProbTime'
p606
g128
(g132
S'R\xa5\x11\x14n\xcc)@'
p607
tp608
Rp609
sS'deletedApp'
p610
g128
(g132
S'\xa7F\xba\x1bDA"@'
p611
tp612
Rp613
sS'cumul_PrepCount'
p614
g128
(g132
S'Q}(\x03I\xdc&@'
p615
tp616
Rp617
sS'probDiff'
p618
g128
(g132
S'\xdc\xc4\xc9e\xdcf<@'
p619
tp620
Rp621
sS'cumul_avgstepTime'
p622
g128
(g132
S'\x07\x90y\xff\x16\xee/@'
p623
tp624
Rp625
sa(dp626
g127
g128
(g132
S'\xc2\x81|n\xef\xc9F@'
p627
tp628
Rp629
sg138
g128
(g132
S'.\xf7\x17<OtQ@'
p630
tp631
Rp632
sg142
g128
(g132
S'\xb2\x05\xc0>\x06\xddL@'
p633
tp634
Rp635
sg146
g128
(g132
S'M:\xdc\xb4\x11\x10@@'
p636
tp637
Rp638
sg150
g128
(g132
S'n\x97\x05\x14\x12\xf9E@'
p639
tp640
Rp641
sg154
g128
(g132
S'\x1a!\x1f\t5_E@'
p642
tp643
Rp644
sg162
g128
(g132
S'\xe4\x9b\xb1\xf3\x8f$H@'
p645
tp646
Rp647
sg166
g128
(g132
S'|\x02<\xee\xf8\xdbC@'
p648
tp649
Rp650
sg170
g128
(g132
S'O|\xca\xf6\x9d\xcbE@'
p651
tp652
Rp653
sg174
g128
(g132
S'\xdd\xbc\x0f\xc3\x0f\xe5E@'
p654
tp655
Rp656
sg178
g128
(g132
S'a\x12\xe8\xef\xe6gG@'
p657
tp658
Rp659
sg182
g128
(g132
S'\x92\\\x9e|jgF@'
p660
tp661
Rp662
sg186
g128
(g132
S'\xba\x10\r\x8cR\x1cG@'
p663
tp664
Rp665
sg190
g128
(g132
S'Y\x1f\xab\x98E\x11G@'
p666
tp667
Rp668
sg194
g128
(g132
S'=\x1a\x16\xfa\xe6,I@'
p669
tp670
Rp671
sg198
g128
(g132
S'\x9f\x00W\x10\xa3\xecG@'
p672
tp673
Rp674
sg202
g128
(g132
S'2dB\xfb\xe2\xf9N@'
p675
tp676
Rp677
sg206
g128
(g132
S'\xf7\r\x06@\xb2DG@'
p678
tp679
Rp680
sg210
g128
(g132
S'70\x05\xb3\xba\xb3X@'
p681
tp682
Rp683
sg214
g128
(g132
S'\xab\x88}p\xd0\x9cE@'
p684
tp685
Rp686
sg218
g128
(g132
S'\x8cn\x87\t\xb0@K@'
p687
tp688
Rp689
sg222
g128
(g132
S'\x0e\xdc\xe4\x13\xc3\x17E@'
p690
tp691
Rp692
sg226
g128
(g132
S'9\xd1\x03\xec\x02 E@'
p693
tp694
Rp695
sg230
g128
(g132
S'z5}\xfa\xcb\rL@'
p696
tp697
Rp698
sg234
g128
(g132
S'&\x18\xb4\xb6\xb3\x05R@'
p699
tp700
Rp701
sg238
g128
(g132
S'F\x1d\xfb\x82p\xe9E@'
p702
tp703
Rp704
sg242
g128
(g132
S'\x8d\xcd\x1e\x06\x8f\xc2H@'
p705
tp706
Rp707
sg246
g128
(g132
S'\xc2\x15\xb6w\x10\x1cP@'
p708
tp709
Rp710
sg250
g128
(g132
S'\xccfk\xc0\xf7rM@'
p711
tp712
Rp713
sg254
g128
(g132
S'\xd9i\x88\x1a\xbd\xd3E@'
p714
tp715
Rp716
sg258
g128
(g132
S'\x98\xe1\x92\xc7\xe5\xc9D@'
p717
tp718
Rp719
sg262
g128
(g132
S'\x9d\x8f\x86o\xf4\xebI@'
p720
tp721
Rp722
sg266
g128
(g132
S'\x11\xe1\r/l\xfcK@'
p723
tp724
Rp725
sg270
g128
(g132
S'\x1c\x9c\x1b\xd6\x94\xf1B@'
p726
tp727
Rp728
sg274
g128
(g132
S'\xbc\x06\xbc\x1f(\xb6J@'
p729
tp730
Rp731
sg278
g128
(g132
S'y\xd5}\xc4\xc3_F@'
p732
tp733
Rp734
sg282
g128
(g132
S'\x0cI\x06\xe4\xbf\xedI@'
p735
tp736
Rp737
sg286
g128
(g132
S'\x15h\xb3\xcb&BD@'
p738
tp739
Rp740
sg290
g128
(g132
S'\xb6x*gN\xe6E@'
p741
tp742
Rp743
sg294
g128
(g132
S'\xa2.(\x98~|H@'
p744
tp745
Rp746
sg298
g128
(g132
S'\x13nt@\nND@'
p747
tp748
Rp749
sg302
g128
(g132
S'D\xe9\xc2\x9d\xfa\x1eH@'
p750
tp751
Rp752
sg306
g128
(g132
S'P\xf7\xaa\xc6\xe8\x18E@'
p753
tp754
Rp755
sg310
g128
(g132
S'\x8a;\xa5\xda*]K@'
p756
tp757
Rp758
sg314
g128
(g132
S'\xdf(?t\xf5\x95C@'
p759
tp760
Rp761
sg318
g128
(g132
S'I\x9c\x9b_\x98\xd7M@'
p762
tp763
Rp764
sg322
g128
(g132
S'gR\x8b\xe7(\xffE@'
p765
tp766
Rp767
sg326
g128
(g132
S'\xb2\x05\xc0>\x06\xddL@'
p768
tp769
Rp770
sg330
g128
(g132
S'\xde\xa1\x08I^\x97M@'
p771
tp772
Rp773
sg334
g128
(g132
S'8D\x9fH\x83\xe5E@'
p774
tp775
Rp776
sg338
g128
(g132
S'J\x05>-C\x02N@'
p777
tp778
Rp779
sg342
g128
(g132
S'\xf6$\xb16\xde^F@'
p780
tp781
Rp782
sg346
g128
(g132
S'\xa7@\xb6\xb6!\x85F@'
p783
tp784
Rp785
sg350
g128
(g132
S'$\x9d\x15\x06\x19\xc0H@'
p786
tp787
Rp788
sg354
g128
(g132
S'\xc2\xb9\x06\x82\n\xe0E@'
p789
tp790
Rp791
sg358
g128
(g132
S'YYt\x88?\xdeE@'
p792
tp793
Rp794
sg362
g128
(g132
S'\xe7#Z\xb2r\xdcE@'
p795
tp796
Rp797
sg366
g128
(g132
S'f\x9a\xfcG@|F@'
p798
tp799
Rp800
sg370
g128
(g132
S'\x00-QQ\xa0\x03K@'
p801
tp802
Rp803
sg374
g128
(g132
S'Q\x15\xb7\xea\x19\x02H@'
p804
tp805
Rp806
sg378
g128
(g132
S'\x97\xdb\x05\x06\x96\xc1E@'
p807
tp808
Rp809
sg382
g128
(g132
S'1\x02awm\xffE@'
p810
tp811
Rp812
sg386
g128
(g132
S'\xe8m{\xf6\x19\xc5G@'
p813
tp814
Rp815
sg390
g128
(g132
S'\x02\xf0_\x12\xb6\x04F@'
p816
tp817
Rp818
sg394
g128
(g132
S'V\xa0\xcc\xbfY)E@'
p819
tp820
Rp821
sg398
g128
(g132
S'\xf4\x9f\xad\xc6;zF@'
p822
tp823
Rp824
sg402
g128
(g132
S'\xee\xc0\xe0\\\xc0\xc6E@'
p825
tp826
Rp827
sg406
g128
(g132
S'\x01\xb9\x1d\xc46Ta@'
p828
tp829
Rp830
sg410
g128
(g132
S'\xda\xff\xa9\xa1Z\xa9F@'
p831
tp832
Rp833
sg414
g128
(g132
S'\xf2\xd0\xd3J\t\xdfE@'
p834
tp835
Rp836
sg418
g128
(g132
S'\xb2\x05\xc0>\x06\xddL@'
p837
tp838
Rp839
sg422
g128
(g132
S'\x13\x00\xd8T\x9blF@'
p840
tp841
Rp842
sg426
g128
(g132
S'e\xff\xe1,\xf1\xccK@'
p843
tp844
Rp845
sg430
g128
(g132
S'\xe7t_\xc9\x9ceC@'
p846
tp847
Rp848
sg434
g128
(g132
S'9\xb62c\xdf\xd9E@'
p849
tp850
Rp851
sg438
g128
(g132
S'\xcewt\\\x99\xa9F@'
p852
tp853
Rp854
sg442
g128
(g132
S'\x921Yqs\xb0L@'
p855
tp856
Rp857
sg446
g128
(g132
S'\x0c\xd53\xfc\x7fKI@'
p858
tp859
Rp860
sg450
g128
(g132
S'\x86\x97k\x83G\xd6E@'
p861
tp862
Rp863
sg454
g128
(g132
S'`\x9b\xc72Q\x19G@'
p864
tp865
Rp866
sg458
g128
(g132
S'r\xcf_F\xa5\xa8E@'
p867
tp868
Rp869
sg462
g128
(g132
S'+\xb6\x80GA\xedE@'
p870
tp871
Rp872
sg466
g128
(g132
S'\xfd\t\x18\x15\xed\xc3S@'
p873
tp874
Rp875
sg470
g128
(g132
S'9\xd1\x03\xec\x02 E@'
p876
tp877
Rp878
sg474
g128
(g132
S'\xa0\x96\x97\x06\x14\xffE@'
p879
tp880
Rp881
sg478
g128
(g132
S'\rrQ\xa4\x9a\xa2M@'
p882
tp883
Rp884
sg482
g128
(g132
S'\xa4\x02\xaf\x80\xc6\x99A@'
p885
tp886
Rp887
sg486
g128
(g132
S'\x81 C\x94\xef\xcfE@'
p888
tp889
Rp890
sg490
g128
(g132
S'\x9b\n\xb0\xcet\r9@'
p891
tp892
Rp893
sg494
g128
(g132
S'\x0c\xde\x0b\xb0\x15\xe8E@'
p894
tp895
Rp896
sg498
g128
(g132
S'\x88V\xec\x7fO\xcfE@'
p897
tp898
Rp899
sg502
g128
(g132
S'{&\x10\x17\xb4\xf2E@'
p900
tp901
Rp902
sg506
g128
(g132
S'\x1dh\xbc\x84\xcd\x12G@'
p903
tp904
Rp905
sg510
g128
(g132
S'\xb2\x05\xc0>\x06\xddL@'
p906
tp907
Rp908
sg514
g128
(g132
S'\x11\xe1\r/l\xfcK@'
p909
tp910
Rp911
sg518
g128
(g132
S'\xa2\x05\xc4^<\xd1E@'
p912
tp913
Rp914
sg522
g128
(g132
S'\x94q;.\xdc\xb6E@'
p915
tp916
Rp917
sg526
g128
(g132
S'\xaa\xbb\xf3^\xf6#E@'
p918
tp919
Rp920
sg530
g128
(g132
S'1\x12\xc2\xce@cD@'
p921
tp922
Rp923
sg534
g128
(g132
S'\xefF\xcaL\xa9\xe2E@'
p924
tp925
Rp926
sg538
g128
(g132
S'\xea\x00\x8e\x0b~\x149@'
p927
tp928
Rp929
sg542
g128
(g132
S'\xa8\x95;\xf0\xf6\xc7N@'
p930
tp931
Rp932
sg546
g128
(g132
S'\x06\xac\x12jD\xe3E@'
p933
tp934
Rp935
sg550
g128
(g132
S'\xcf!\xe6\x0f>\xd3G@'
p936
tp937
Rp938
sg554
g128
(g132
S'\xd0!\xe6\x0f>\xd3G@'
p939
tp940
Rp941
sg558
g128
(g132
S'\x0f\x08\xa7\xfar\xddE@'
p942
tp943
Rp944
sg562
g128
(g132
S'8\xd6G\x89x\x08C@'
p945
tp946
Rp947
sg566
g128
(g132
S'~~!\x99\x11\xdcE@'
p948
tp949
Rp950
sg570
g128
(g132
S'\x0e1\x1a\xdbT\x18G@'
p951
tp952
Rp953
sg574
g128
(g132
S'\x18{\xea\n-\x1cF@'
p954
tp955
Rp956
sg578
g128
(g132
S'\x83d\x19g-]P@'
p957
tp958
Rp959
sg582
g128
(g132
S'\x1e\xd7\x93\xa73\xabK@'
p960
tp961
Rp962
sg586
g128
(g132
S'\xcf~J\xb0\xbb\xbfF@'
p963
tp964
Rp965
sg590
g128
(g132
S'2BDz\xd9\xbbF@'
p966
tp967
Rp968
sg594
g128
(g132
S'\xc2\x81|n\xef\xc9F@'
p969
tp970
Rp971
sg598
g128
(g132
S'\t\xbd\xe2\xfa\xb1\xfcG@'
p972
tp973
Rp974
sg602
g128
(g132
S'\xf4\xb3el\xc4\x9eL@'
p975
tp976
Rp977
sg606
g128
(g132
S'\xff\x91\x1b\x1c\x1e\x0eF@'
p978
tp979
Rp980
sg610
g128
(g132
S'\x89\x94C\x1c|#F@'
p981
tp982
Rp983
sg614
g128
(g132
S'.+\x927>\x88H@'
p984
tp985
Rp986
sg618
g128
(g132
S'\x00{\x14GP\xbdI@'
p987
tp988
Rp989
sg622
g128
(g132
S"B\x1e'\xbe3cI@"
p990
tp991
Rp992
sa(dp993
g127
g128
(g132
S'?\xcc\xec\x12\x8f{G@'
p994
tp995
Rp996
sg138
g128
(g132
S'\x16=\x11\x1ae\xe9]@'
p997
tp998
Rp999
sg142
g128
(g132
S'\xe6\xd4\xda\xc3\xe3\x1aa@'
p1000
tp1001
Rp1002
sg146
g128
(g132
S'\x96]\xc8\xa0\xd4\x18]@'
p1003
tp1004
Rp1005
sg150
g128
(g132
S'\x0f\x18\xf3\x93C\x99b@'
p1006
tp1007
Rp1008
sg154
g128
(g132
S'\xe6\xfa\x07\x8fV@^@'
p1009
tp1010
Rp1011
sg162
g128
(g132
S'\x9c$\x86\xa7]\x11p@'
p1012
tp1013
Rp1014
sg166
g128
(g132
S'\xbc\xf7\xe4\xe0R\xd0B@'
p1015
tp1016
Rp1017
sg170
g128
(g132
S'\x94\xb4\x9b\x80\xdfAa@'
p1018
tp1019
Rp1020
sg174
g128
(g132
S'L\xcf/\x95ISa@'
p1021
tp1022
Rp1023
sg178
g128
(g132
S'\x95\xdbp\x9dh!K@'
p1024
tp1025
Rp1026
sg182
g128
(g132
S'\x08\xe5\xa8\x94\xa1\xda`@'
p1027
tp1028
Rp1029
sg186
g128
(g132
S'\xca(\xce\xac\x05\x9ba@'
p1030
tp1031
Rp1032
sg190
g128
(g132
S'T\x08\x8d\xf3\x01\rV@'
p1033
tp1034
Rp1035
sg194
g128
(g132
S'K\xad\xa4UP9p@'
p1036
tp1037
Rp1038
sg198
g128
(g132
S'\xf7^t\xabp\xd9Z@'
p1039
tp1040
Rp1041
sg202
g128
(g132
S'\xd7M\x0c\xd4\xf9\xccO@'
p1042
tp1043
Rp1044
sg206
g128
(g132
S'\x01\xebJ\xd1JPa@'
p1045
tp1046
Rp1047
sg210
g128
(g132
S'A\x98\x10\x04`\xecb@'
p1048
tp1049
Rp1050
sg214
g128
(g132
S'\xdf\x81\x9ch\xc0za@'
p1051
tp1052
Rp1053
sg218
g128
(g132
S'\x04\x81\xc2\x8a\x95Aa@'
p1054
tp1055
Rp1056
sg222
g128
(g132
S'\xfa*\xf0w\xb3\xc7c@'
p1057
tp1058
Rp1059
sg226
g128
(g132
S'=\xee\xb81~\xeco@'
p1060
tp1061
Rp1062
sg230
g128
(g132
S'.g\xd1\x06\xf7iY@'
p1063
tp1064
Rp1065
sg234
g128
(g132
S'wh\xbf\x8a\xadt]@'
p1066
tp1067
Rp1068
sg238
g128
(g132
S'\xdc\x1a9\xec\xfe\x05a@'
p1069
tp1070
Rp1071
sg242
g128
(g132
S'd!\xb0\r\xd2}Y@'
p1072
tp1073
Rp1074
sg246
g128
(g132
S'\xb6%\xdb\x9dH0k@'
p1075
tp1076
Rp1077
sg250
g128
(g132
S'\x173\xd1\xe28\xbda@'
p1078
tp1079
Rp1080
sg254
g128
(g132
S'f\xb7\xa0[O@a@'
p1081
tp1082
Rp1083
sg258
g128
(g132
S'\xcd\xfd\xe3<\x9f\x07Q@'
p1084
tp1085
Rp1086
sg262
g128
(g132
S'\xd2\x7f\xad\x1aT\xf5_@'
p1087
tp1088
Rp1089
sg266
g128
(g132
S'\xc2y,8\xbc\x98`@'
p1090
tp1091
Rp1092
sg270
g128
(g132
S'T\x83\x97(\x8f\xf3Q@'
p1093
tp1094
Rp1095
sg274
g128
(g132
S'\xc3\xbe\x8d\xc7\xd5R`@'
p1096
tp1097
Rp1098
sg278
g128
(g132
S'\xf8\x8a?\xe1\x98(a@'
p1099
tp1100
Rp1101
sg282
g128
(g132
S'\x81]\xd2\x1a\xaf]a@'
p1102
tp1103
Rp1104
sg286
g128
(g132
S'\x97\x1akG\xfb\xebZ@'
p1105
tp1106
Rp1107
sg290
g128
(g132
S'4\x8c#\xa6WUa@'
p1108
tp1109
Rp1110
sg294
g128
(g132
S'\x88\x17W\xb0dMY@'
p1111
tp1112
Rp1113
sg298
g128
(g132
S';\x03^\xe5\x14LW@'
p1114
tp1115
Rp1116
sg302
g128
(g132
S'\xbd\x8b\x08\xbc\x85<a@'
p1117
tp1118
Rp1119
sg306
g128
(g132
S'\xb5\xf6\xe0\xf2\x82\xeco@'
p1120
tp1121
Rp1122
sg310
g128
(g132
S'\xd4F\xbc`\xe9W[@'
p1123
tp1124
Rp1125
sg314
g128
(g132
S'_<\\\x16bD[@'
p1126
tp1127
Rp1128
sg318
g128
(g132
S'\\\xc0\xeb\xab\x95\xf2`@'
p1129
tp1130
Rp1131
sg322
g128
(g132
S')\x12\xbc\xb65Ua@'
p1132
tp1133
Rp1134
sg326
g128
(g132
S'\xe6\xd4\xda\xc3\xe3\x1aa@'
p1135
tp1136
Rp1137
sg330
g128
(g132
S'9\xde\x0b\x88\x80ia@'
p1138
tp1139
Rp1140
sg334
g128
(g132
S'\xb6rUWsTa@'
p1141
tp1142
Rp1143
sg338
g128
(g132
S'\xf2\xd3p\x18Zyd@'
p1144
tp1145
Rp1146
sg342
g128
(g132
S'\xa1\x14l\xdc/\xa8a@'
p1147
tp1148
Rp1149
sg346
g128
(g132
S'\xa9\xbe\x17;\x06\xcda@'
p1150
tp1151
Rp1152
sg350
g128
(g132
S'&\xf0<\xd2?\xcc[@'
p1153
tp1154
Rp1155
sg354
g128
(g132
S'/c\xa3W8Oa@'
p1156
tp1157
Rp1158
sg358
g128
(g132
S']\xd2\x8d\x1d\xefOa@'
p1159
tp1160
Rp1161
sg362
g128
(g132
S'q\xef\x98\xf3sOa@'
p1162
tp1163
Rp1164
sg366
g128
(g132
S'\xdb:\x88\xb1\xd9\xf3`@'
p1165
tp1166
Rp1167
sg370
g128
(g132
S'|1\xbd9!\xd0`@'
p1168
tp1169
Rp1170
sg374
g128
(g132
S'\x06\xcf\xf5\x16\xee3`@'
p1171
tp1172
Rp1173
sg378
g128
(g132
S'\xc4M\xcf\xe3hBa@'
p1174
tp1175
Rp1176
sg382
g128
(g132
S'\x94\x8b\xca\xe8CRa@'
p1177
tp1178
Rp1179
sg386
g128
(g132
S'\x12\xf6\xa6j\xd9+b@'
p1180
tp1181
Rp1182
sg390
g128
(g132
S'\xe7)N\xe9\xc2ba@'
p1183
tp1184
Rp1185
sg394
g128
(g132
S'_*{\xb8\xfb:p@'
p1186
tp1187
Rp1188
sg398
g128
(g132
S'$N\x8b\xa8\x02\xf0`@'
p1189
tp1190
Rp1191
sg402
g128
(g132
S'_\xfd\x8ce\xc3>a@'
p1192
tp1193
Rp1194
sg410
g128
(g132
S'\x8c\xaf\xec\xd5\xa7\xb5T@'
p1195
tp1196
Rp1197
sg414
g128
(g132
S'\x82}\xb5\x19V\x08c@'
p1198
tp1199
Rp1200
sg418
g128
(g132
S'\xe6\xd4\xda\xc3\xe3\x1aa@'
p1201
tp1202
Rp1203
sg422
g128
(g132
S'R\x87\\\xf2\xb6\x1e[@'
p1204
tp1205
Rp1206
sg426
g128
(g132
S'\xf2\xa3\xa3G\xa7;G@'
p1207
tp1208
Rp1209
sg506
g128
(g132
S'\xb2^\xb4\xe3\xfaDa@'
p1210
tp1211
Rp1212
sg434
g128
(g132
S'\xe2\xfd\x8e\xf3_Na@'
p1213
tp1214
Rp1215
sg438
g128
(g132
S'\xac\xff\xf6\xf5\xa1Eb@'
p1216
tp1217
Rp1218
sg442
g128
(g132
S'\xcc{/|\xbaGa@'
p1219
tp1220
Rp1221
sg446
g128
(g132
S'\x00\x1f}\xe9B"D@'
p1222
tp1223
Rp1224
sg450
g128
(g132
S'\x1b\xde\xad\x83\xc9\xff`@'
p1225
tp1226
Rp1227
sg454
g128
(g132
S'M\x1c\xba\r\x1dIa@'
p1228
tp1229
Rp1230
sg458
g128
(g132
S'd\xed\xc1\xb0\x94\x11p@'
p1231
tp1232
Rp1233
sg462
g128
(g132
S'\xd6\xe2:,\xaeSa@'
p1234
tp1235
Rp1236
sg466
g128
(g132
S'\xb6\xd5\xebk\xe5Fe@'
p1237
tp1238
Rp1239
sg470
g128
(g132
S'>\xee\xb81~\xeco@'
p1240
tp1241
Rp1242
sg474
g128
(g132
S'\xf2\xa3\x86X\xb4ca@'
p1243
tp1244
Rp1245
sg478
g128
(g132
S'\x9f}\xcd\x1e\x8e\xf0g@'
p1246
tp1247
Rp1248
sg482
g128
(g132
S'\xa1\xb9\x89w\n [@'
p1249
tp1250
Rp1251
sg486
g128
(g132
S' \xa1\x96U\xc6Ra@'
p1252
tp1253
Rp1254
sg490
g128
(g132
S'\xc6`\xe8\xf8\x1d\xf6W@'
p1255
tp1256
Rp1257
sg430
g128
(g132
S'\xb0f\xab\xc4_&a@'
p1258
tp1259
Rp1260
sg494
g128
(g132
S'\xd0\x89\x92n\xb5\xfcb@'
p1261
tp1262
Rp1263
sg498
g128
(g132
S'_ax$Q{`@'
p1264
tp1265
Rp1266
sg502
g128
(g132
S'\x9d\xe2\xf1\xbd)\x8ab@'
p1267
tp1268
Rp1269
sg510
g128
(g132
S'\xe6\xd4\xda\xc3\xe3\x1aa@'
p1270
tp1271
Rp1272
sg514
g128
(g132
S'\xc2y,8\xbc\x98`@'
p1273
tp1274
Rp1275
sg518
g128
(g132
S':\xe8I\xe4!,a@'
p1276
tp1277
Rp1278
sg522
g128
(g132
S'D#\xe0\xa1\xb13a@'
p1279
tp1280
Rp1281
sg526
g128
(g132
S'\xae\x1f\xeb9V\xeeo@'
p1282
tp1283
Rp1284
sg530
g128
(g132
S'\x07\xef\xe9\xaf\x1a_p@'
p1285
tp1286
Rp1287
sg534
g128
(g132
S';\x8f\x82-\x99\ta@'
p1288
tp1289
Rp1290
sg538
g128
(g132
S'2fx\x12r\xf7W@'
p1291
tp1292
Rp1293
sg542
g128
(g132
S'5\xb5\x8d\x84\xd4\xb2a@'
p1294
tp1295
Rp1296
sg546
g128
(g132
S'\xbcq2\xe1nSa@'
p1297
tp1298
Rp1299
sg550
g128
(g132
S'(Z\xa9\xa4\xea4S@'
p1300
tp1301
Rp1302
sg554
g128
(g132
S')Z\xa9\xa4\xea4S@'
p1303
tp1304
Rp1305
sg558
g128
(g132
S'\xf3\xf1e\xdf\xd4Na@'
p1306
tp1307
Rp1308
sg562
g128
(g132
S'\xcfz\xd1\x06^KW@'
p1309
tp1310
Rp1311
sg566
g128
(g132
S'\x86Bv{%Pa@'
p1312
tp1313
Rp1314
sg570
g128
(g132
S'\xa8.\x9c\xe6\x9fHa@'
p1315
tp1316
Rp1317
sg574
g128
(g132
S'\x1a\r\xdd\nIja@'
p1318
tp1319
Rp1320
sg578
g128
(g132
S'\xea\xbe\xcf\x00\x07Xe@'
p1321
tp1322
Rp1323
sg582
g128
(g132
S'}Z\xc3eq\xdf`@'
p1324
tp1325
Rp1326
sg586
g128
(g132
S',\x97)7\x9aHI@'
p1327
tp1328
Rp1329
sg590
g128
(g132
S'\x066\xa5\xcaI;T@'
p1330
tp1331
Rp1332
sg594
g128
(g132
S'?\xcc\xec\x12\x8f{G@'
p1333
tp1334
Rp1335
sg598
g128
(g132
S'\xaa\xfa\xc6\xe1\xca\x0fY@'
p1336
tp1337
Rp1338
sg602
g128
(g132
S'\xc8\xc4\x19\x01T\xa0F@'
p1339
tp1340
Rp1341
sg606
g128
(g132
S'\x8d=qK\x08TV@'
p1342
tp1343
Rp1344
sg610
g128
(g132
S'\xbd\xb5;Q\xc7[a@'
p1345
tp1346
Rp1347
sg614
g128
(g132
S'\xda\xa7\x98\x89\xb7<a@'
p1348
tp1349
Rp1350
sg618
g128
(g132
S'\xcc\x89,(&\xe6[@'
p1351
tp1352
Rp1353
sg622
g128
(g132
S'\x9d\xea\xc4E\x1d\xbe[@'
p1354
tp1355
Rp1356
sa(dp1357
g127
g128
(g132
S'F\x82XY\xbf\xd0E@'
p1358
tp1359
Rp1360
sg138
g128
(g132
S'VF\xf6\x06\xdf\x10n@'
p1361
tp1362
Rp1363
sg142
g128
(g132
S'\x06(>\x1d\xa0\xf1o@'
p1364
tp1365
Rp1366
sg146
g128
(g132
S'p\x9fF\xfd\xd8\xdbh@'
p1367
tp1368
Rp1369
sg150
g128
(g132
S'x*LR\xfb\xa0k@'
p1370
tp1371
Rp1372
sg154
g128
(g132
S'\x9b\xb0:\x11nAl@'
p1373
tp1374
Rp1375
sg162
g128
(g132
S'\x82%\xab>\xda\xaeo@'
p1376
tp1377
Rp1378
sg166
g128
(g132
S't\xdb\xceN\x89GD@'
p1379
tp1380
Rp1381
sg170
g128
(g132
S'4KB3\xd0Op@'
p1382
tp1383
Rp1384
sg174
g128
(g132
S'\xad\xd7\r\x85VPp@'
p1385
tp1386
Rp1387
sg178
g128
(g132
S'n\xa9\xd9\x8d*n^@'
p1388
tp1389
Rp1390
sg182
g128
(g132
S'ka\xdfl\x94@p@'
p1391
tp1392
Rp1393
sg186
g128
(g132
S'\x80\xab\xdavW\x85p@'
p1394
tp1395
Rp1396
sg190
g128
(g132
S'\xd8\x92kq\xb3od@'
p1397
tp1398
Rp1399
sg194
g128
(g132
S'\xbc\xf6\x95[\x05\xa0p@'
p1400
tp1401
Rp1402
sg198
g128
(g132
S'\xbe\xc4\x95\x1c*\x98e@'
p1403
tp1404
Rp1405
sg202
g128
(g132
S'"4\x00\xdf6\xfaM@'
p1406
tp1407
Rp1408
sg206
g128
(g132
S'.\xc0\x85yaHp@'
p1409
tp1410
Rp1411
sg210
g128
(g132
S'\xb3\x03\x9c\xed\xa9\x15r@'
p1412
tp1413
Rp1414
sg214
g128
(g132
S'T\xff7\xb8\x93op@'
p1415
tp1416
Rp1417
sg218
g128
(g132
S')OPcPOp@'
p1418
tp1419
Rp1420
sg222
g128
(g132
S'\xa9\xdfN\xcbk\xdel@'
p1421
tp1422
Rp1423
sg226
g128
(g132
S'\x12\xdb\x94\xfe\xd7ak@'
p1424
tp1425
Rp1426
sg230
g128
(g132
S'\xdco\xef\xe3\xd3\x9bg@'
p1427
tp1428
Rp1429
sg234
g128
(g132
S'\xcc\xfd\xa2\x90\xd3\x80n@'
p1430
tp1431
Rp1432
sg238
g128
(g132
S'3\xac^\xc5E\xbfa@'
p1433
tp1434
Rp1435
sg242
g128
(g132
S'Z\xf9C\x82\xa4\xbeK@'
p1436
tp1437
Rp1438
sg246
g128
(g132
S'\xcc\x1a\xa1;\x9e\xe3v@'
p1439
tp1440
Rp1441
sg250
g128
(g132
S'\x11\xac\x01g\xc9\xcco@'
p1442
tp1443
Rp1444
sg254
g128
(g132
S'\x9e\x80\xd4\xde\r\x03o@'
p1445
tp1446
Rp1447
sg258
g128
(g132
S'\xc0\x94\xd4G/\xfee@'
p1448
tp1449
Rp1450
sg262
g128
(g132
S'{\t\xae\x14\x1b\x87l@'
p1451
tp1452
Rp1453
sg266
g128
(g132
S'B7\rI\xdc\xf6l@'
p1454
tp1455
Rp1456
sg270
g128
(g132
S'9\xc3\xdd(BoH@'
p1457
tp1458
Rp1459
sg274
g128
(g132
S'\x9f\xa8\xed\xc4\xcfjm@'
p1460
tp1461
Rp1462
sg278
g128
(g132
S"\xa6\xd7'&\xb6!b@"
p1463
tp1464
Rp1465
sg282
g128
(g132
S'\x08b\x96\xbc\xe2\x0cg@'
p1466
tp1467
Rp1468
sg286
g128
(g132
S'\xf9\xa0B\x8f\xa5}g@'
p1469
tp1470
Rp1471
sg290
g128
(g132
S'\x96\x11\xba\xab\x88;p@'
p1472
tp1473
Rp1474
sg294
g128
(g132
S'\xba\xa6a\xaaw\xd1g@'
p1475
tp1476
Rp1477
sg298
g128
(g132
S'\xc8z+w`\xbbh@'
p1478
tp1479
Rp1480
sg302
g128
(g132
S'\x9f\x93\xd1\xce\xaaHp@'
p1481
tp1482
Rp1483
sg306
g128
(g132
S'Wn\x05\xa30Pk@'
p1484
tp1485
Rp1486
sg310
g128
(g132
S'H\x8cH\xabC=[@'
p1487
tp1488
Rp1489
sg314
g128
(g132
S'-\xa4\xe7\xdfN.i@'
p1490
tp1491
Rp1492
sg318
g128
(g132
S'\x9c\xb1|\xbbD~o@'
p1493
tp1494
Rp1495
sg322
g128
(g132
S'\xe7\xcf\xfe\x02\xc6[o@'
p1496
tp1497
Rp1498
sg326
g128
(g132
S'\x06(>\x1d\xa0\xf1o@'
p1499
tp1500
Rp1501
sg330
g128
(g132
S'-\xee\xd2\xd5K:p@'
p1502
tp1503
Rp1504
sg334
g128
(g132
S'\xce\x04\x85\xc8\x9a`p@'
p1505
tp1506
Rp1507
sg338
g128
(g132
S'\xab\xf7\xd9\x89\x02br@'
p1508
tp1509
Rp1510
sg342
g128
(g132
S'\xc8Q-]\x17\xa1p@'
p1511
tp1512
Rp1513
sg346
g128
(g132
S'\xe8\x8ds\xd5\x8c5p@'
p1514
tp1515
Rp1516
sg350
g128
(g132
S'tS3\xf5;\x1dj@'
p1517
tp1518
Rp1519
sg354
g128
(g132
S'`(;[\x87Io@'
p1520
tp1521
Rp1522
sg358
g128
(g132
S'D\x11\x8e\xa6\x999p@'
p1523
tp1524
Rp1525
sg362
g128
(g132
S's\x1a|}E]p@'
p1526
tp1527
Rp1528
sg366
g128
(g132
S'\xa8\x1d\xe4J\xb0\x15p@'
p1529
tp1530
Rp1531
sg370
g128
(g132
S'\xec\xbb\xac\xe5\xdb\xd7e@'
p1532
tp1533
Rp1534
sg374
g128
(g132
S'0\x9aH7z\xaag@'
p1535
tp1536
Rp1537
sg378
g128
(g132
S'\x91\x8a\xba^\xedPp@'
p1538
tp1539
Rp1540
sg382
g128
(g132
S'\xa9\xd4L>*Xp@'
p1541
tp1542
Rp1543
sg386
g128
(g132
S'$\xb3\xf6\x92\x1c\xd4g@'
p1544
tp1545
Rp1546
sg390
g128
(g132
S'\xe6\x8a\xf9(\x17pp@'
p1547
tp1548
Rp1549
sg394
g128
(g132
S'\x92\x88a\x99\x17Km@'
p1550
tp1551
Rp1552
sg398
g128
(g132
S'\xf4\x1a\x0b\x99\xd0\xa5a@'
p1553
tp1554
Rp1555
sg402
g128
(g132
S'\xa9\xfb\xc6\xc8\xbcPp@'
p1556
tp1557
Rp1558
sg410
g128
(g132
S'/,\x92nqJE@'
p1559
tp1560
Rp1561
sg414
g128
(g132
S'o/\xe4%\xe5\x1eo@'
p1562
tp1563
Rp1564
sg418
g128
(g132
S'\x06(>\x1d\xa0\xf1o@'
p1565
tp1566
Rp1567
sg422
g128
(g132
S'k\x95\x0b\x0e\x86\x06a@'
p1568
tp1569
Rp1570
sg426
g128
(g132
S'\xbc\x15\x92\t\x8a\x12a@'
p1571
tp1572
Rp1573
sg506
g128
(g132
S']8\x1d\xa4\x19Op@'
p1574
tp1575
Rp1576
sg434
g128
(g132
S'b2\xf9\xb4J\\p@'
p1577
tp1578
Rp1579
sg438
g128
(g132
S'm\xe9\x7f\xce?Yq@'
p1580
tp1581
Rp1582
sg442
g128
(g132
S';\xdf\xdd\x9a\xa3%p@'
p1583
tp1584
Rp1585
sg446
g128
(g132
S'\xad\xda\xf00\xc0\xb0E@'
p1586
tp1587
Rp1588
sg450
g128
(g132
S'\xfb\xac\xae\x86\x8a\xb3a@'
p1589
tp1590
Rp1591
sg454
g128
(g132
S'\x13/\x1c\x84\xb2Pp@'
p1592
tp1593
Rp1594
sg458
g128
(g132
S'\xbf\x04\xc8\xa3\xe3\x10p@'
p1595
tp1596
Rp1597
sg462
g128
(g132
S'\x943\xd8\xfc\xca\xbbn@'
p1598
tp1599
Rp1600
sg466
g128
(g132
S'\xc5\xcf4\x10\xd2\x9fr@'
p1601
tp1602
Rp1603
sg470
g128
(g132
S'\x12\xdb\x94\xfe\xd7ak@'
p1604
tp1605
Rp1606
sg474
g128
(g132
S'b\x81\xb3\x91\xf2\x8bl@'
p1607
tp1608
Rp1609
sg478
g128
(g132
S'\x90}\xf2J\x80\xf9c@'
p1610
tp1611
Rp1612
sg482
g128
(g132
S'\x7fw\x91\xad3\xe8[@'
p1613
tp1614
Rp1615
sg486
g128
(g132
S'\xea\x0e\xf7pDep@'
p1616
tp1617
Rp1618
sg490
g128
(g132
S"d\xa5Vj\t'h@"
p1619
tp1620
Rp1621
sg430
g128
(g132
S'\x9b\x81HJ9\x13p@'
p1622
tp1623
Rp1624
sg494
g128
(g132
S'\x91\xc5\xc9O_\x83n@'
p1625
tp1626
Rp1627
sg498
g128
(g132
S'\x1e\xa5\x7f\xc6]\xc7p@'
p1628
tp1629
Rp1630
sg502
g128
(g132
S'\xee\xc8\x9c\xf8t\xd0j@'
p1631
tp1632
Rp1633
sg510
g128
(g132
S'\x06(>\x1d\xa0\xf1o@'
p1634
tp1635
Rp1636
sg514
g128
(g132
S'C7\rI\xdc\xf6l@'
p1637
tp1638
Rp1639
sg518
g128
(g132
S'\x11B\x9co\xb3\rl@'
p1640
tp1641
Rp1642
sg522
g128
(g132
S'X\x0e\xad\xdc\x02!m@'
p1643
tp1644
Rp1645
sg526
g128
(g132
S'\x02\xa8\x88\xd2\x81uk@'
p1646
tp1647
Rp1648
sg534
g128
(g132
S'-]\xf9\x89W\xc3a@'
p1649
tp1650
Rp1651
sg538
g128
(g132
S"r\xf8\xee\x1c')h@"
p1652
tp1653
Rp1654
sg542
g128
(g132
S'\xe4a\xd6\xc9\xcfjp@'
p1655
tp1656
Rp1657
sg546
g128
(g132
S'\xb2\xde=\xc8&$o@'
p1658
tp1659
Rp1660
sg550
g128
(g132
S'9\x02\xd2\xd4\x84\xbcd@'
p1661
tp1662
Rp1663
sg554
g128
(g132
S'9\x02\xd2\xd4\x84\xbcd@'
p1664
tp1665
Rp1666
sg558
g128
(g132
S'|q\x06\xcb\xc4}n@'
p1667
tp1668
Rp1669
sg562
g128
(g132
S'\xed\xa9Q\x9a\x9b\xefd@'
p1670
tp1671
Rp1672
sg566
g128
(g132
S'\x12\tQ0b]p@'
p1673
tp1674
Rp1675
sg570
g128
(g132
S'\xf0;\x04\xd3BWp@'
p1676
tp1677
Rp1678
sg574
g128
(g132
S'8\x1e\x9b;\xb4 n@'
p1679
tp1680
Rp1681
sg578
g128
(g132
S'?\x8b\x98\xf4\xa7]s@'
p1682
tp1683
Rp1684
sg582
g128
(g132
S'\x04\x99\xf3\x8cS\xbem@'
p1685
tp1686
Rp1687
sg586
g128
(g132
S'\x10\x8f=\x99{\xdcH@'
p1688
tp1689
Rp1690
sg590
g128
(g132
S'\x04\x03\xe5\x06L\tT@'
p1691
tp1692
Rp1693
sg594
g128
(g132
S'F\x82XY\xbf\xd0E@'
p1694
tp1695
Rp1696
sg598
g128
(g132
S'\x0cw\xd5PN\xcak@'
p1697
tp1698
Rp1699
sg602
g128
(g132
S'\xcb*\xd71bgF@'
p1700
tp1701
Rp1702
sg606
g128
(g132
S'\xab\xd5x\xd0>\xf9I@'
p1703
tp1704
Rp1705
sg610
g128
(g132
S'j\xb9O\xaf0{o@'
p1706
tp1707
Rp1708
sg614
g128
(g132
S'\xfb\xc7\xff\x89\x90Ip@'
p1709
tp1710
Rp1711
sg618
g128
(g132
S'\xdb\xc9\xbd\x85\xa8Li@'
p1712
tp1713
Rp1714
sg622
g128
(g132
S'j2\xd4\rs$k@'
p1715
tp1716
Rp1717
sa(dp1718
g127
g128
(g132
S'}^\xb1\x84QqD@'
p1719
tp1720
Rp1721
sg138
g128
(g132
S'l\x19\\G(\x80t@'
p1722
tp1723
Rp1724
sg142
g128
(g132
S'\xd2$\xf0\xe7\xd5/v@'
p1725
tp1726
Rp1727
sg146
g128
(g132
S'\xb0\xb8@N~\xa0h@'
p1728
tp1729
Rp1730
sg150
g128
(g132
S'\x94\x1e\xf8\xac\x1a\xa6s@'
p1731
tp1732
Rp1733
sg154
g128
(g132
S'\xc4\xc2_bM\x80s@'
p1734
tp1735
Rp1736
sg162
g128
(g132
S'\n\xdb$\xc4\x82=t@'
p1737
tp1738
Rp1739
sg166
g128
(g132
S'\xbb\x02\x0b!\x88\xddD@'
p1740
tp1741
Rp1742
sg170
g128
(g132
S'l\xbd\x03R\x0b\xf3v@'
p1743
tp1744
Rp1745
sg174
g128
(g132
S'\xf8\xc0\xcd\xf9~\xe5v@'
p1746
tp1747
Rp1748
sg178
g128
(g132
S'C\x0e\xd2\x04T\xce^@'
p1749
tp1750
Rp1751
sg182
g128
(g132
S'\xc7\xfc\x92\xb9T\xb5v@'
p1752
tp1753
Rp1754
sg186
g128
(g132
S'\xeeu\xbb]3\x88v@'
p1755
tp1756
Rp1757
sg190
g128
(g132
S'H\xf8\x98\xa3\x8f\xe9j@'
p1758
tp1759
Rp1760
sg194
g128
(g132
S'\tX\x9e\\q\x02w@'
p1761
tp1762
Rp1763
sg198
g128
(g132
S'bl\xf7!\xed\x1bk@'
p1764
tp1765
Rp1766
sg202
g128
(g132
S'\xe2&G(\x92\xc9N@'
p1767
tp1768
Rp1769
sg206
g128
(g132
S'^(\xdd\x16@\xfav@'
p1770
tp1771
Rp1772
sg210
g128
(g132
S'\xcc\xe7\x99R\xd5\xaep@'
p1773
tp1774
Rp1775
sg214
g128
(g132
S'\xf2\xdfL\xb3\xb2\x85w@'
p1776
tp1777
Rp1778
sg218
g128
(g132
S'\x97\xeb]\xfam\xa4v@'
p1779
tp1780
Rp1781
sg222
g128
(g132
S'\xc5\x84\x14\x9b\xde*t@'
p1782
tp1783
Rp1784
sg226
g128
(g132
S'\xce\xb0\xd9\xf7\x05Xs@'
p1785
tp1786
Rp1787
sg230
g128
(g132
S'\x83gu\xc4\x05\x81r@'
p1788
tp1789
Rp1790
sg234
g128
(g132
S'\x8b]>\xcd\x19\xd1u@'
p1791
tp1792
Rp1793
sg238
g128
(g132
S'\xac?\xa5\x99d\xf5h@'
p1794
tp1795
Rp1796
sg242
g128
(g132
S'\xfa\x85nI \xc6M@'
p1797
tp1798
Rp1799
sg250
g128
(g132
S'\xcff\xc9\xe2\xedUv@'
p1800
tp1801
Rp1802
sg254
g128
(g132
S'uK@\xfd(\x17u@'
p1803
tp1804
Rp1805
sg258
g128
(g132
S'\xa2>`\x1d~\xb7p@'
p1806
tp1807
Rp1808
sg262
g128
(g132
S'e\xec\x8d\x8c\xa0\x8bt@'
p1809
tp1810
Rp1811
sg266
g128
(g132
S'K:;\x98EAn@'
p1812
tp1813
Rp1814
sg270
g128
(g132
S'\xf0\xe7\x18\xb9\x14\x84J@'
p1815
tp1816
Rp1817
sg274
g128
(g132
S'lVT\xf0r\xf0t@'
p1818
tp1819
Rp1820
sg278
g128
(g132
S'\x86\\\x15\xd6\x90\x9ci@'
p1821
tp1822
Rp1823
sg282
g128
(g132
S'K3\xf5A\x0eqn@'
p1824
tp1825
Rp1826
sg286
g128
(g132
S'\xdf\xd8\xdc\xbb\xed\x90p@'
p1827
tp1828
Rp1829
sg290
g128
(g132
S'k\xc0\x00a/\xa8v@'
p1830
tp1831
Rp1832
sg294
g128
(g132
S'#\xa3\xb2i\x00\x02p@'
p1833
tp1834
Rp1835
sg298
g128
(g132
S'C\x15\xe4\xfd\xf4,p@'
p1836
tp1837
Rp1838
sg302
g128
(g132
S'\x17\xb1\x15i\x02\xdbv@'
p1839
tp1840
Rp1841
sg306
g128
(g132
S'\xac\xf9\x88v\x800s@'
p1842
tp1843
Rp1844
sg310
g128
(g132
S'\x13B\xfc\xc9\x04\rb@'
p1845
tp1846
Rp1847
sg314
g128
(g132
S'\xba"K7\x1eLk@'
p1848
tp1849
Rp1850
sg318
g128
(g132
S'\x83\xbb5\xe0g\x9cu@'
p1851
tp1852
Rp1853
sg322
g128
(g132
S'\x8e\x8e\xb4\x15\xcc\x0cu@'
p1854
tp1855
Rp1856
sg326
g128
(g132
S'\xd2$\xf0\xe7\xd5/v@'
p1857
tp1858
Rp1859
sg330
g128
(g132
S'nPs\xdb+\xc4v@'
p1860
tp1861
Rp1862
sg334
g128
(g132
S'q\x13\xb0\x943\xdfv@'
p1863
tp1864
Rp1865
sg338
g128
(g132
S'n\xe3xQ\x7f\x92x@'
p1866
tp1867
Rp1868
sg342
g128
(g132
S'\xee\xf1\xb5\x1e\x99\xe4v@'
p1869
tp1870
Rp1871
sg346
g128
(g132
S'\xee\x89\x1ft?\xa1v@'
p1872
tp1873
Rp1874
sg350
g128
(g132
S'\x0c\xb7\x85\x92O\x85q@'
p1875
tp1876
Rp1877
sg354
g128
(g132
S'}\x8c}\x83\xa4\ru@'
p1878
tp1879
Rp1880
sg358
g128
(g132
S'Q\xfb\xbf\xf3\x16\xd9v@'
p1881
tp1882
Rp1883
sg362
g128
(g132
S'7\x91\x99\x98b\xfav@'
p1884
tp1885
Rp1886
sg366
g128
(g132
S'-\x10n\x03\xfd\x9dv@'
p1887
tp1888
Rp1889
sg370
g128
(g132
S'\xbdy\xbc\x91\x19zl@'
p1890
tp1891
Rp1892
sg374
g128
(g132
S'q\xfe\xe2\xc6w\xebm@'
p1893
tp1894
Rp1895
sg378
g128
(g132
S'\x83f\xda\xba:\xd8v@'
p1896
tp1897
Rp1898
sg382
g128
(g132
S'\xe4\xa2e\xf15\xd0v@'
p1899
tp1900
Rp1901
sg386
g128
(g132
S'v_7\xee\\\x10l@'
p1902
tp1903
Rp1904
sg390
g128
(g132
S'\xa3\xd9\x19 \xb5\xaav@'
p1905
tp1906
Rp1907
sg394
g128
(g132
S"\xd3;\xa4\xf0\\'t@"
p1908
tp1909
Rp1910
sg398
g128
(g132
S'1\x05\xe5F\xee\xeeh@'
p1911
tp1912
Rp1913
sg402
g128
(g132
S'Sw\xe0\xea\x0f\xb1v@'
p1914
tp1915
Rp1916
sg410
g128
(g132
S'\xfe\xc2(k>&H@'
p1917
tp1918
Rp1919
sg414
g128
(g132
S'\xbb:7\xfa\xae\xfbt@'
p1920
tp1921
Rp1922
sg418
g128
(g132
S'\xd2$\xf0\xe7\xd5/v@'
p1923
tp1924
Rp1925
sg422
g128
(g132
S'\x9b\x06\x05\xd9\xb0\xfag@'
p1926
tp1927
Rp1928
sg426
g128
(g132
S'\xd4\x9e\xcc\xac\xe1re@'
p1929
tp1930
Rp1931
sg506
g128
(g132
S'\nd\xf0@\xe7\xd3v@'
p1932
tp1933
Rp1934
sg434
g128
(g132
S'-\xd8h\x8e,\xd9v@'
p1935
tp1936
Rp1937
sg438
g128
(g132
S'\xe4\x9a\xaf+`\x9ew@'
p1938
tp1939
Rp1940
sg442
g128
(g132
S'\xf8\xf1\r\x9c\x9d\xabv@'
p1941
tp1942
Rp1943
sg446
g128
(g132
S'n\xa1\'\x95\xfc"E@'
p1944
tp1945
Rp1946
sg450
g128
(g132
S'r\xe4\x8f\x94F\xe3h@'
p1947
tp1948
Rp1949
sg454
g128
(g132
S'\xa0\xe3\xf2W\xe0\xcev@'
p1950
tp1951
Rp1952
sg458
g128
(g132
S'd\x96\xa5\x08\xb2Au@'
p1953
tp1954
Rp1955
sg462
g128
(g132
S'u\x9fm\xb5/\xbdt@'
p1956
tp1957
Rp1958
sg466
g128
(g132
S'[\x07L\xa6z\xe9u@'
p1959
tp1960
Rp1961
sg470
g128
(g132
S'\xd5\x97\x89\x9c\x98Xs@'
p1962
tp1963
Rp1964
sg474
g128
(g132
S'"\x12~\x07\xd6\xa7t@'
p1965
tp1966
Rp1967
sg478
g128
(g132
S'$W\x1f\xdd\xa4\xffc@'
p1968
tp1969
Rp1970
sg482
g128
(g132
S'\xc5\xe6\x8b(S\x08b@'
p1971
tp1972
Rp1973
sg486
g128
(g132
S'\xfc6\xdd\n\xc0\x9av@'
p1974
tp1975
Rp1976
sg490
g128
(g132
S'\x10\xe1nU\xb4\x84p@'
p1977
tp1978
Rp1979
sg430
g128
(g132
S'\xd9h\xd6\x8f\x1b\xafu@'
p1980
tp1981
Rp1982
sg494
g128
(g132
S'\x0c~\x01L\x03\nu@'
p1983
tp1984
Rp1985
sg498
g128
(g132
S'\xb7\xed\x04*\xa9\x90v@'
p1986
tp1987
Rp1988
sg502
g128
(g132
S'Xkc\x986\xf6r@'
p1989
tp1990
Rp1991
sg510
g128
(g132
S'\xd2$\xf0\xe7\xd5/v@'
p1992
tp1993
Rp1994
sg514
g128
(g132
S'K:;\x98EAn@'
p1995
tp1996
Rp1997
sg518
g128
(g132
S'4\xb4S^\x9a s@'
p1998
tp1999
Rp2000
sg522
g128
(g132
S'w~7\x17\xe8\xb3s@'
p2001
tp2002
Rp2003
sg526
g128
(g132
S'\xb0v}\xc6\xf7hs@'
p2004
tp2005
Rp2006
sg534
g128
(g132
S'\xc33\xb4\xc3a\xfeh@'
p2007
tp2008
Rp2009
sg538
g128
(g132
S'\x8f\xc0\x8e\xf4\xdb\x86p@'
p2010
tp2011
Rp2012
sg542
g128
(g132
S'\xb8\xe6\xc5\xab\xc3\xcdv@'
p2013
tp2014
Rp2015
sg546
g128
(g132
S'f\xd4QG\x12)u@'
p2016
tp2017
Rp2018
sg550
g128
(g132
S'\xe5\x0bhCR\xeal@'
p2019
tp2020
Rp2021
sg554
g128
(g132
S'\xe5\x0bhCR\xeal@'
p2022
tp2023
Rp2024
sg558
g128
(g132
S'@\x98};\xa9\x95t@'
p2025
tp2026
Rp2027
sg562
g128
(g132
S'OX\xaf\x92\xb4\xd0e@'
p2028
tp2029
Rp2030
sg566
g128
(g132
S'\xfaEp\xd4?\xfav@'
p2031
tp2032
Rp2033
sg570
g128
(g132
S'\x9e\x8f}@\xe3\xe9v@'
p2034
tp2035
Rp2036
sg574
g128
(g132
S'\xda\x88\xbe\x8b,3u@'
p2037
tp2038
Rp2039
sg578
g128
(g132
S'\x81\x9c\xad[u\x19w@'
p2040
tp2041
Rp2042
sg582
g128
(g132
S'\x8b\xea\xab\x02\xb7\xeas@'
p2043
tp2044
Rp2045
sg586
g128
(g132
S'\x14\xde\x1b\x8f\xbeLI@'
p2046
tp2047
Rp2048
sg590
g128
(g132
S'b\x92\\\xb7M\tX@'
p2049
tp2050
Rp2051
sg594
g128
(g132
S'}^\xb1\x84QqD@'
p2052
tp2053
Rp2054
sg598
g128
(g132
S'N#\x16\x88<qq@'
p2055
tp2056
Rp2057
sg602
g128
(g132
S'\xac\xf3s\xcd\x99\xe6E@'
p2058
tp2059
Rp2060
sg606
g128
(g132
S'l\xe0\x9aK.\x92J@'
p2061
tp2062
Rp2063
sg610
g128
(g132
S'<\xeb\xd7Q\x97\x99u@'
p2064
tp2065
Rp2066
sg614
g128
(g132
S'8\xa4\xa8\xfd)\xdcv@'
p2067
tp2068
Rp2069
sg618
g128
(g132
S'7\x0c\x9b4A\xafp@'
p2070
tp2071
Rp2072
sg622
g128
(g132
S'E,\x99uc\xa5q@'
p2073
tp2074
Rp2075
sa(dp2076
g127
g128
(g132
S'j/e\x8c\xe1\xc6B@'
p2077
tp2078
Rp2079
sg138
g128
(g132
S'\xe8\x87\x95r_\xfeu@'
p2080
tp2081
Rp2082
sg142
g128
(g132
S'\xd4\xa1\xca\x93\xed\xfcw@'
p2083
tp2084
Rp2085
sg146
g128
(g132
S'>?"\xe23\xbeh@'
p2086
tp2087
Rp2088
sg150
g128
(g132
S'\xaf\xfe\xc4\x1e\xf3\x0et@'
p2089
tp2090
Rp2091
sg154
g128
(g132
S'\xd0\x16\n\x90\xb6\xf3s@'
p2092
tp2093
Rp2094
sg162
g128
(g132
S'\x14\xa2hX\xbe\xb8t@'
p2095
tp2096
Rp2097
sg166
g128
(g132
S'\xcdR\xd1\x167_F@'
p2098
tp2099
Rp2100
sg170
g128
(g132
S'\x16\xfc\x94F\xa9\x80x@'
p2101
tp2102
Rp2103
sg174
g128
(g132
S'\xef|\x1b\x92\xc0\xa3x@'
p2104
tp2105
Rp2106
sg178
g128
(g132
S'\x1e8V\x06\xaamb@'
p2107
tp2108
Rp2109
sg182
g128
(g132
S'\xc4<\x93\\vrx@'
p2110
tp2111
Rp2112
sg186
g128
(g132
S'z2\xd7\x89\xf4Bx@'
p2113
tp2114
Rp2115
sg190
g128
(g132
S'\xba\x8c0\x1fd\x9em@'
p2116
tp2117
Rp2118
sg194
g128
(g132
S'B\xe1:\xf3\x96\x8fw@'
p2119
tp2120
Rp2121
sg198
g128
(g132
S'\xec\xa4o\xaa\x80\xcdi@'
p2122
tp2123
Rp2124
sg202
g128
(g132
S'N\xfa\xe6z-\x7fO@'
p2125
tp2126
Rp2127
sg206
g128
(g132
S'|\xe6a\x8au\x7fx@'
p2128
tp2129
Rp2130
sg210
g128
(g132
S'\x14]>\xed\xfa"p@'
p2131
tp2132
Rp2133
sg214
g128
(g132
S'\t\x95\xeb\x99e\xb0x@'
p2134
tp2135
Rp2136
sg218
g128
(g132
S'5\xd0\x9cjOux@'
p2137
tp2138
Rp2139
sg222
g128
(g132
S'\xbc\x865@t.t@'
p2140
tp2141
Rp2142
sg226
g128
(g132
S'\xf5)\xec\x02zis@'
p2143
tp2144
Rp2145
sg230
g128
(g132
S'\xaac\xb6\xe3X\x17t@'
p2146
tp2147
Rp2148
sg234
g128
(g132
S'\xecSG{\xa8\xc1w@'
p2149
tp2150
Rp2151
sg238
g128
(g132
S'\x12\xfd"0&\xd8h@'
p2152
tp2153
Rp2154
sg242
g128
(g132
S'\xba\x811V\xf9\tN@'
p2155
tp2156
Rp2157
sg250
g128
(g132
S'\xdc\x94\xcc.w\x85w@'
p2158
tp2159
Rp2160
sg254
g128
(g132
S'T6\x18\x8d\xca\xb6u@'
p2161
tp2162
Rp2163
sg258
g128
(g132
S'\x86\xedT\x13]\xd0p@'
p2164
tp2165
Rp2166
sg262
g128
(g132
S'\xc5%\xa5a\x11\x02w@'
p2167
tp2168
Rp2169
sg266
g128
(g132
S'\xd4\x19\xb0Hi$p@'
p2170
tp2171
Rp2172
sg270
g128
(g132
S'\xf7\xd9\x8f\xead\x82J@'
p2173
tp2174
Rp2175
sg274
g128
(g132
S'\x08x\x93\x02\xc6\xe4v@'
p2176
tp2177
Rp2178
sg278
g128
(g132
S'\xe9h\xdal\x03ji@'
p2179
tp2180
Rp2181
sg282
g128
(g132
S'\x16\xae1\x0c\x9b\x06l@'
p2182
tp2183
Rp2184
sg286
g128
(g132
S'fW\x8a\xf0\x90\xbck@'
p2185
tp2186
Rp2187
sg290
g128
(g132
S'\xcf;\xae\xf8\xb6Kx@'
p2188
tp2189
Rp2190
sg294
g128
(g132
S'\n\xaf\xfd\xb8\x02bq@'
p2191
tp2192
Rp2193
sg298
g128
(g132
S'\xbd>\x7f\xc9\xbe\x93n@'
p2194
tp2195
Rp2196
sg302
g128
(g132
S'\xac\x94w\xb3+\x87x@'
p2197
tp2198
Rp2199
sg306
g128
(g132
S'\x02\x97<_I;s@'
p2200
tp2201
Rp2202
sg310
g128
(g132
S'\x07\x07\xa4\t\xf9\xe7c@'
p2203
tp2204
Rp2205
sg314
g128
(g132
S'\x80i\xcb\xdd\xca\xa3l@'
p2206
tp2207
Rp2208
sg318
g128
(g132
S' \xea\xa5\xf3\rAv@'
p2209
tp2210
Rp2211
sg322
g128
(g132
S'\xb2\xd2\xbc\x17\xf8\xb1u@'
p2212
tp2213
Rp2214
sg326
g128
(g132
S'\xd4\xa1\xca\x93\xed\xfcw@'
p2215
tp2216
Rp2217
sg330
g128
(g132
S'\xda\x87d\xc8\x83Sx@'
p2218
tp2219
Rp2220
sg334
g128
(g132
S'\xb2\x07\xfcr\xa3\x84x@'
p2221
tp2222
Rp2223
sg342
g128
(g132
S'\xd8)\xa5\xc0\x1c\x94x@'
p2224
tp2225
Rp2226
sg346
g128
(g132
S' \r,\xae\xed\xd4x@'
p2227
tp2228
Rp2229
sg350
g128
(g132
S'\xe9g\xebFx\x86q@'
p2230
tp2231
Rp2232
sg354
g128
(g132
S'B\xacq\xa8\\\x91u@'
p2233
tp2234
Rp2235
sg358
g128
(g132
S'M4\xe5\xcd\x05\x98x@'
p2236
tp2237
Rp2238
sg362
g128
(g132
S'\x91n\xd0U{\x97x@'
p2239
tp2240
Rp2241
sg366
g128
(g132
S'\xdd\xd9:S\xbd8x@'
p2242
tp2243
Rp2244
sg370
g128
(g132
S'\xd1|\xefF\xec\xb7k@'
p2245
tp2246
Rp2247
sg374
g128
(g132
S'i9h\xf6,\x12m@'
p2248
tp2249
Rp2250
sg378
g128
(g132
S'\x05\x8dyh\x1cqx@'
p2251
tp2252
Rp2253
sg382
g128
(g132
S'\x14\xcc\x8bS#\x83x@'
p2254
tp2255
Rp2256
sg386
g128
(g132
S'S\x80\x00(\x14\xf1k@'
p2257
tp2258
Rp2259
sg390
g128
(g132
S'\xf6mI\xf1)nx@'
p2260
tp2261
Rp2262
sg394
g128
(g132
S'-f\x97\xb3$\xf7s@'
p2263
tp2264
Rp2265
sg398
g128
(g132
S'\xbf\xadS\x81m\xd9h@'
p2266
tp2267
Rp2268
sg402
g128
(g132
S'.\xe1\xc2g\xe9xx@'
p2269
tp2270
Rp2271
sg410
g128
(g132
S'#)\x9a\xc3x\xd6K@'
p2272
tp2273
Rp2274
sg414
g128
(g132
S'D\xd4\xc2\xd7\x06hu@'
p2275
tp2276
Rp2277
sg418
g128
(g132
S'\xd4\xa1\xca\x93\xed\xfcw@'
p2278
tp2279
Rp2280
sg422
g128
(g132
S'*\xd7\x80\xa7\xec\xf1f@'
p2281
tp2282
Rp2283
sg426
g128
(g132
S'\xce\xcc4 \xf6\xf0f@'
p2284
tp2285
Rp2286
sg506
g128
(g132
S'\x0e\xebE\xc2~~x@'
p2287
tp2288
Rp2289
sg434
g128
(g132
S'\xbd\xecB\x15\xb9\x80x@'
p2290
tp2291
Rp2292
sg438
g128
(g132
S'?\xb3\x0b\xd9\x81hy@'
p2293
tp2294
Rp2295
sg442
g128
(g132
S'\xec\x81{L\xbaFx@'
p2296
tp2297
Rp2298
sg446
g128
(g132
S'\xd2\xed\x13\xe5\x1d\x01G@'
p2299
tp2300
Rp2301
sg450
g128
(g132
S'\xf8\x08\xef+\xab\xddh@'
p2302
tp2303
Rp2304
sg454
g128
(g132
S'\x009={\x98px@'
p2305
tp2306
Rp2307
sg458
g128
(g132
S'v\x9c/.\x94\xfdv@'
p2308
tp2309
Rp2310
sg462
g128
(g132
S'\xfb\xfd\x8aWlQu@'
p2311
tp2312
Rp2313
sg466
g128
(g132
S'\x08\xa8\x02\x8c\r\xddq@'
p2314
tp2315
Rp2316
sg470
g128
(g132
S'\xe8\xb28\x11djs@'
p2317
tp2318
Rp2319
sg474
g128
(g132
S'\xfe\xdf\xa6\xe1\xbc2v@'
p2320
tp2321
Rp2322
sg478
g128
(g132
S'f\xa7\xb6\x1e\xbf\x93d@'
p2323
tp2324
Rp2325
sg482
g128
(g132
S'\x98\x98G\xd4\x15[b@'
p2326
tp2327
Rp2328
sg486
g128
(g132
S'\x16\x89\xc3\xb90`x@'
p2329
tp2330
Rp2331
sg490
g128
(g132
S'r[\xfe\ru\xa1s@'
p2332
tp2333
Rp2334
sg430
g128
(g132
S'\xea\x0c\x07H\xe4\xfdv@'
p2335
tp2336
Rp2337
sg494
g128
(g132
S'f\x04\x95\xb4\xe2mu@'
p2338
tp2339
Rp2340
sg498
g128
(g132
S'\xc7\x17\xcb\x91\xd5Zx@'
p2341
tp2342
Rp2343
sg502
g128
(g132
S'\xe6[\x0c\x85\xff\xb8s@'
p2344
tp2345
Rp2346
sg510
g128
(g132
S'\xd4\xa1\xca\x93\xed\xfcw@'
p2347
tp2348
Rp2349
sg514
g128
(g132
S'\xd4\x19\xb0Hi$p@'
p2350
tp2351
Rp2352
sg518
g128
(g132
S'\xfe\xcc\xe0\xbd\xffss@'
p2353
tp2354
Rp2355
sg522
g128
(g132
S'Q\xd7/D\x81Xt@'
p2356
tp2357
Rp2358
sg526
g128
(g132
S'!\x1e\x8e\xf6\xf2qs@'
p2359
tp2360
Rp2361
sg534
g128
(g132
S'*E\xdf\x1a\xd3\xe4h@'
p2362
tp2363
Rp2364
sg538
g128
(g132
S'\xd4\xfe\x1bS\x15\xabs@'
p2365
tp2366
Rp2367
sg542
g128
(g132
S'\xd4,\x80aHjx@'
p2368
tp2369
Rp2370
sg546
g128
(g132
S'*!\xe1;\x0f\xcbu@'
p2371
tp2372
Rp2373
sg550
g128
(g132
S'Lc]\xe0\x80\x01r@'
p2374
tp2375
Rp2376
sg554
g128
(g132
S'Lc]\xe0\x80\x01r@'
p2377
tp2378
Rp2379
sg558
g128
(g132
S'\xce\x05=\rR\xf6t@'
p2380
tp2381
Rp2382
sg562
g128
(g132
S'\x90*\r\xe9\xfd\xa0e@'
p2383
tp2384
Rp2385
sg566
g128
(g132
S'o\xe7\xc3\x9bK\x9cx@'
p2386
tp2387
Rp2388
sg570
g128
(g132
S'\x9b\x9d\x16\xe2\x8b\x91x@'
p2389
tp2390
Rp2391
sg574
g128
(g132
S'}}9qY\xf7v@'
p2392
tp2393
Rp2394
sg578
g128
(g132
S'\xac\x94M\x995\x0ew@'
p2395
tp2396
Rp2397
sg582
g128
(g132
S'\xfb\xd1bC\xdf\x85t@'
p2398
tp2399
Rp2400
sg586
g128
(g132
S'\xf0\xb9\xaa\xd2L_K@'
p2401
tp2402
Rp2403
sg590
g128
(g132
S':4\x86\xc4\xa37Y@'
p2404
tp2405
Rp2406
sg594
g128
(g132
S'j/e\x8c\xe1\xc6B@'
p2407
tp2408
Rp2409
sg598
g128
(g132
S'>\x1d\x8f\xc8\x89\xd7o@'
p2410
tp2411
Rp2412
sg602
g128
(g132
S'\xb5\x8d*\xe3\x12\xe1G@'
p2413
tp2414
Rp2415
sg606
g128
(g132
S'.\xaa\xd3\x15\xddzM@'
p2416
tp2417
Rp2418
sg610
g128
(g132
S',\x1aQa\x9a\xcdu@'
p2419
tp2420
Rp2421
sg614
g128
(g132
S'\xd1)\x14^\n{x@'
p2422
tp2423
Rp2424
sg618
g128
(g132
S'\xb0\xcd\xa06l*r@'
p2425
tp2426
Rp2427
sg622
g128
(g132
S'Dw1\x10\xde\xa1q@'
p2428
tp2429
Rp2430
sa(dp2431
g127
g128
(g132
S'S5\xd0\xb7\xd2RC@'
p2432
tp2433
Rp2434
sg138
g128
(g132
S'\xf0\xfc\x83\xf9\x89\nw@'
p2435
tp2436
Rp2437
sg142
g128
(g132
S'\xc7\x85\xb5n\xa6\x86x@'
p2438
tp2439
Rp2440
sg146
g128
(g132
S'\x97j\x973\xe1\x1dk@'
p2441
tp2442
Rp2443
sg150
g128
(g132
S'Tq|<\xef\xe4t@'
p2444
tp2445
Rp2446
sg154
g128
(g132
S'Il\x95\xec\xee\x87t@'
p2447
tp2448
Rp2449
sg162
g128
(g132
S'\x89K&\xb0S\xc9u@'
p2450
tp2451
Rp2452
sg166
g128
(g132
S'~P\xcb\xe8Z\x1bE@'
p2453
tp2454
Rp2455
sg170
g128
(g132
S'\xb6\xec\x03\x92\xceGy@'
p2456
tp2457
Rp2458
sg174
g128
(g132
S'f\xb7\x9d\xb8W\x8by@'
p2459
tp2460
Rp2461
sg178
g128
(g132
S'\xaa\xf9>\xa7\xd3\xb9b@'
p2462
tp2463
Rp2464
sg182
g128
(g132
S'\xca;\x9e\xa4\x0eIy@'
p2465
tp2466
Rp2467
sg186
g128
(g132
S'!\x84%\xdf\t\xf8x@'
p2468
tp2469
Rp2470
sg190
g128
(g132
S'|W\x9b\t\xc2\xfem@'
p2471
tp2472
Rp2473
sg194
g128
(g132
S'\xe9\xdd\xd4\xf4w\xc4x@'
p2474
tp2475
Rp2476
sg198
g128
(g132
S'y\xed\xb2;\xe9\x8aj@'
p2477
tp2478
Rp2479
sg202
g128
(g132
S'\xd24U\xe0!\nP@'
p2480
tp2481
Rp2482
sg206
g128
(g132
S'\xdc\x14.<2Iy@'
p2483
tp2484
Rp2485
sg210
g128
(g132
S'\x18\xff\xb9Rg\xf1m@'
p2486
tp2487
Rp2488
sg214
g128
(g132
S'\x1f3\xff?\xcb\x8dy@'
p2489
tp2490
Rp2491
sg218
g128
(g132
S'b2 t#Ay@'
p2492
tp2493
Rp2494
sg222
g128
(g132
S'\xfb\n\xe9\xce\xa2>u@'
p2495
tp2496
Rp2497
sg226
g128
(g132
S'F\xe6\xa9Id\x11t@'
p2498
tp2499
Rp2500
sg230
g128
(g132
S'\xd6\xbf/\x9d\xbe\xa8t@'
p2501
tp2502
Rp2503
sg234
g128
(g132
S'\x9e\x1b(\x1f\xf8\xbax@'
p2504
tp2505
Rp2506
sg238
g128
(g132
S'\x8dd\xaf\x8fL\xfai@'
p2507
tp2508
Rp2509
sg242
g128
(g132
S'\x05\xc7\xec\xdbz\xb4M@'
p2510
tp2511
Rp2512
sg250
g128
(g132
S'\xf9\x99P\xa3Wcx@'
p2513
tp2514
Rp2515
sg254
g128
(g132
S'\xacLSm2\x84v@'
p2516
tp2517
Rp2518
sg258
g128
(g132
S'\xa2Q%\xf6\xbfIq@'
p2519
tp2520
Rp2521
sg262
g128
(g132
S'\x13\xb2\xcbf\x89\xc8w@'
p2522
tp2523
Rp2524
sg266
g128
(g132
S'\x05by\xb0\xa2Jq@'
p2525
tp2526
Rp2527
sg270
g128
(g132
S'\x06\x02\xbe\x18\xb0oL@'
p2528
tp2529
Rp2530
sg274
g128
(g132
S'\xee\x12\xfb\xd1\xbe\x82w@'
p2531
tp2532
Rp2533
sg278
g128
(g132
S':U|\x83\x83\x8aj@'
p2534
tp2535
Rp2536
sg282
g128
(g132
S'N\xec\x9b\xf7AMm@'
p2537
tp2538
Rp2539
sg286
g128
(g132
S'q\xdcXZW\xccm@'
p2540
tp2541
Rp2542
sg290
g128
(g132
S'\x1fk\xa3\x83\xd1)y@'
p2543
tp2544
Rp2545
sg294
g128
(g132
S'v\xdbi\xd5r\x19r@'
p2546
tp2547
Rp2548
sg298
g128
(g132
S'\xd9\xcf\xd7\x83\xbf\xa9o@'
p2549
tp2550
Rp2551
sg302
g128
(g132
S'\xfa\x1c\xc4n\xe1Zy@'
p2552
tp2553
Rp2554
sg306
g128
(g132
S'\x8e\x9f67\xf6\xdas@'
p2555
tp2556
Rp2557
sg310
g128
(g132
S'm\x1b\x8c\xa5|\xd0d@'
p2558
tp2559
Rp2560
sg314
g128
(g132
S'\x80\xa0\xa1~:\x0co@'
p2561
tp2562
Rp2563
sg318
g128
(g132
S'\xe9\xa8?^\xcb\xf1v@'
p2564
tp2565
Rp2566
sg322
g128
(g132
S'\xae\xcd@\x01\x12\x94v@'
p2567
tp2568
Rp2569
sg326
g128
(g132
S'\xc7\x85\xb5n\xa6\x86x@'
p2570
tp2571
Rp2572
sg330
g128
(g132
S'h\xec\xb5\x9aE\xf4x@'
p2573
tp2574
Rp2575
sg334
g128
(g132
S'\x17\xdf-\xc7\xdbSy@'
p2576
tp2577
Rp2578
sg342
g128
(g132
S"'\xfd\x05M.Ey@"
p2579
tp2580
Rp2581
sg346
g128
(g132
S'-hY\x03\xd6\x9fy@'
p2582
tp2583
Rp2584
sg350
g128
(g132
S'Fb\xf1nxNr@'
p2585
tp2586
Rp2587
sg354
g128
(g132
S'd\xe9`a\x9c}v@'
p2588
tp2589
Rp2590
sg358
g128
(g132
S'<\xaf\xed\x1b\x12iy@'
p2591
tp2592
Rp2593
sg362
g128
(g132
S'\xac\x90cv^\x88y@'
p2594
tp2595
Rp2596
sg366
g128
(g132
S'\xca0\x86\xdf2\x1by@'
p2597
tp2598
Rp2599
sg370
g128
(g132
S'\x8c!\x0e\x1f\xee\x1bl@'
p2600
tp2601
Rp2602
sg374
g128
(g132
S' \xf8{^\xe2in@'
p2603
tp2604
Rp2605
sg378
g128
(g132
S'\xba9\x8d\x07\xa8@y@'
p2606
tp2607
Rp2608
sg382
g128
(g132
S'\xd2:\x13\x92\xcaWy@'
p2609
tp2610
Rp2611
sg386
g128
(g132
S'\xde\xa8\xb7bC(m@'
p2612
tp2613
Rp2614
sg390
g128
(g132
S'r\x14rYyMy@'
p2615
tp2616
Rp2617
sg394
g128
(g132
S'Cz\x0e\xb2\xf4Dt@'
p2618
tp2619
Rp2620
sg398
g128
(g132
S'\xcf%\x1a\xfe\xcf\x06j@'
p2621
tp2622
Rp2623
sg402
g128
(g132
S'."!G\xf2Ny@'
p2624
tp2625
Rp2626
sg410
g128
(g132
S'v\xb2b\xfa\\>M@'
p2627
tp2628
Rp2629
sg414
g128
(g132
S'\xa4h\xcf\x87\x033v@'
p2630
tp2631
Rp2632
sg418
g128
(g132
S'\xc7\x85\xb5n\xa6\x86x@'
p2633
tp2634
Rp2635
sg422
g128
(g132
S'\xa1OY\x9b\x0e6i@'
p2636
tp2637
Rp2638
sg426
g128
(g132
S'\xd8X\xbfs\xee\x83h@'
p2639
tp2640
Rp2641
sg506
g128
(g132
S'(\xf0&\x95\x18My@'
p2642
tp2643
Rp2644
sg434
g128
(g132
S'\x16\x8a9\xab\x94Ty@'
p2645
tp2646
Rp2647
sg442
g128
(g132
S'}\xcaL\xef^\x04y@'
p2648
tp2649
Rp2650
sg446
g128
(g132
S'\xfc"\xb2&A\x1eG@'
p2651
tp2652
Rp2653
sg450
g128
(g132
S'^\xd0\xabJ\xb1\xffi@'
p2654
tp2655
Rp2656
sg454
g128
(g132
S'\xc4`\xc8=\xdb3y@'
p2657
tp2658
Rp2659
sg458
g128
(g132
S'\xc6\xe9\xf2\\i\xdfw@'
p2660
tp2661
Rp2662
sg462
g128
(g132
S'\xe1\xfd \n\x16"v@'
p2663
tp2664
Rp2665
sg466
g128
(g132
S'\xc7\x90\xf7ZX\xf7r@'
p2666
tp2667
Rp2668
sg470
g128
(g132
S'g\x15\xc1\xaem\x12t@'
p2669
tp2670
Rp2671
sg474
g128
(g132
S'\xa7<\xc8x\x16\xb1v@'
p2672
tp2673
Rp2674
sg478
g128
(g132
S'z\x96$\x83\xf3\x97d@'
p2675
tp2676
Rp2677
sg482
g128
(g132
S' FQFi\xa4e@'
p2678
tp2679
Rp2680
sg486
g128
(g132
S'\x8a\xd6#\x96\xbf+y@'
p2681
tp2682
Rp2683
sg490
g128
(g132
S'z\xd6\xf9\x84\xd3\x99t@'
p2684
tp2685
Rp2686
sg430
g128
(g132
S'?\x99\xd5WZ\tx@'
p2687
tp2688
Rp2689
sg494
g128
(g132
S'"k\xca\x1b\x18\x07v@'
p2690
tp2691
Rp2692
sg498
g128
(g132
S'\x81\x1c\x17\xba\xba\x10y@'
p2693
tp2694
Rp2695
sg502
g128
(g132
S'\x8cs\xf2\xc0\xa1\x9bt@'
p2696
tp2697
Rp2698
sg510
g128
(g132
S'\xc7\x85\xb5n\xa6\x86x@'
p2699
tp2700
Rp2701
sg514
g128
(g132
S'\x05by\xb0\xa2Jq@'
p2702
tp2703
Rp2704
sg518
g128
(g132
S'\xf4~&bQ\xeas@'
p2705
tp2706
Rp2707
sg522
g128
(g132
S'\xb7]u[\xd4+u@'
p2708
tp2709
Rp2710
sg526
g128
(g132
S'\xb8\xfdf\x12\xe4\x1at@'
p2711
tp2712
Rp2713
sg534
g128
(g132
S'\xf3\x91K\xa0\xd0\x07j@'
p2714
tp2715
Rp2716
sg538
g128
(g132
S'\xd8\xdc.\xfa\xc8\xa2t@'
p2717
tp2718
Rp2719
sg542
g128
(g132
S'\xe6Fn\xc5%>y@'
p2720
tp2721
Rp2722
sg546
g128
(g132
S'\xe0\n\xe4\xa1^\xa2v@'
p2723
tp2724
Rp2725
sg550
g128
(g132
S'\xd4\x1e\x0f9\xc3\x14r@'
p2726
tp2727
Rp2728
sg554
g128
(g132
S'\xd4\x1e\x0f9\xc3\x14r@'
p2729
tp2730
Rp2731
sg558
g128
(g132
S'\x01\xf8H\xe7H\xa5u@'
p2732
tp2733
Rp2734
sg562
g128
(g132
S')D\xed\r\xa5\x1ee@'
p2735
tp2736
Rp2737
sg566
g128
(g132
S'r\xce\xff\xca\xa7\x8dy@'
p2738
tp2739
Rp2740
sg570
g128
(g132
S'\xc1\x1e\xd3\xfa\tey@'
p2741
tp2742
Rp2743
sg574
g128
(g132
S'\x8f\xa4c&\xad\xbbw@'
p2744
tp2745
Rp2746
sg578
g128
(g132
S'\xbdte\xfa\xed\xa5w@'
p2747
tp2748
Rp2749
sg582
g128
(g132
S'BV\xc4\xbeg\\u@'
p2750
tp2751
Rp2752
sg586
g128
(g132
S'\n\x86<\x7fH\xb3K@'
p2753
tp2754
Rp2755
sg590
g128
(g132
S'8\xff]\xed\xbe\xd3Z@'
p2756
tp2757
Rp2758
sg594
g128
(g132
S'S5\xd0\xb7\xd2RC@'
p2759
tp2760
Rp2761
sg598
g128
(g132
S'/4\x9d\xcd4\xb8p@'
p2762
tp2763
Rp2764
sg602
g128
(g132
S'\xc7\xc9\xae\x88`\x06G@'
p2765
tp2766
Rp2767
sg606
g128
(g132
S'A\x0f\x19\x01\xdb]M@'
p2768
tp2769
Rp2770
sg610
g128
(g132
S'\xbe\x1c\x13?\x98\xbdv@'
p2771
tp2772
Rp2773
sg614
g128
(g132
S'\xd0/\x16\xb9\x8fJy@'
p2774
tp2775
Rp2776
sg618
g128
(g132
S'\\\x10S\xf6\xb9\xfcr@'
p2777
tp2778
Rp2779
sg622
g128
(g132
S'+\xd7xC\x87_r@'
p2780
tp2781
Rp2782
sa.