(lp0
(lp1
(S'NewLevel'
p2
I0
tp3
a(S'cumul_WrongSemanticsApp'
p4
I0
tp5
a(S'OptionalCount'
p6
I0
tp7
a(S'symbolicRepresentationCount'
p8
I0
tp9
a(S'cumul_NonPSelements'
p10
I0
tp11
a(S'cumul_englishSymbolicSwitchCount'
p12
I0
tp13
a(S'cumul_UseWindowInfo'
p14
I0
tp15
a(S'RrightAppRatio'
p16
I0
tp17
a(S'FDActionCount'
p18
I0
tp19
a(S'ruleScoreTAUT'
p20
I0
tp21
a(S'cumul_easyProblemCountWE'
p22
I0
tp23
a(S'cumul_InterfaceErrorCount'
p24
I0
tp25
a(S'cumul_OptionalCount'
p26
I0
tp27
a(S'hintRatio'
p28
I0
tp29
a(S'ruleScoreCONTRA'
p30
I0
tp31
a(S'cumul_InDirectProofActionCount'
p32
I0
tp33
a(S'Interaction'
p34
I0
tp35
a(S'WrongSyntaxApp'
p36
I0
tp37
a(S'ruleScoreCOM'
p38
I0
tp39
a(S'cumul_SystemInfoHintCount'
p40
I0
tp41
a(S'cumul_WrongSyntaxApp'
p42
I0
tp43
a(S'cumul_deletedApp'
p44
I0
tp45
a(S'UseCount'
p46
I0
tp47
a(S'cumul_BDActionCount'
p48
I0
tp49
a(S'easyProblemCountWE'
p50
I0
tp51
a(S'cumul_WrongApp'
p52
I0
tp53
a(S'ruleScoreADD'
p54
I0
tp55
a(S'cumul_PreviousStepClickCountWE'
p56
I0
tp57
a(S'DirectProofActionCount'
p58
I0
tp59
a(S'UseWindowInfo'
p60
I0
tp61
a(S'ruleScoreEQUIV'
p62
I0
tp63
a(S'cumul_HoverHintCount'
p64
I0
tp65
a(S'cumul_UseCount'
p66
I0
tp67
a(S'SystemInfoHintCount'
p68
I0
tp69
a(S'cumul_NextStepClickCountWE'
p70
I0
tp71
a(S'cumul_symbolicRepresentationCount'
p72
I0
tp73
a(S'PrepCount'
p74
I0
tp75
a(S'actionCount'
p76
I0
tp77
a(S'NonPSelements'
p78
I0
tp79
a(S'HoverHintCount'
p80
I0
tp81
a(S'RightApp'
p82
I0
tp83
a(S'cumul_RightApp'
p84
I0
tp85
a(S'InterfaceErrorCount'
p86
I0
tp87
a(S'AppCount'
p88
I0
tp89
a(S'cumul_hintCount'
p90
I0
tp91
a(S'WrongApp'
p92
I0
tp93
a(S'cumul_MorphCount'
p94
I0
tp95
a(S'hintCount'
p96
I0
tp97
a(S'BDActionCount'
p98
I0
tp99
a(S'avgstepTimePS'
p100
I0
tp101
a(S'avgstepTime'
p102
I0
tp103
a(S'SolvedPSInLevel'
p104
I0
tp105
a(S'deletedApp'
p106
I0
tp107
a(S'cumul_PrepCount'
p108
I0
tp109
a(S'englishSymbolicSwitchCount'
p110
F0.030229511
tp111
a(S'MorphCount'
p112
F0.03845004
tp113
a(S'ruleScoreSIMP'
p114
F0.041532362
tp115
a(S'InDirectProofActionCount'
p116
F0.046711735
tp117
a(S'WrongSemanticsApp'
p118
F0.05072746
tp119
a(S'SeenWEinLevel'
p120
F0.177936327
tp121
a(S'PreviousStepClickCountWE'
p122
F0.230447671
tp123
a(S'CurrPro_avgProbTimePS'
p124
F0.235704528
tp125
a(S'cumul_TotalWETime'
p126
F0.29417682
tp127
a(S'AppRatio'
p128
F0.4518643
tp129
a(S'BlankRatio'
p130
F0.4518643
tp131
a(S'cumul_RuleTypesCount'
p132
F0.523493143
tp133
a(S'CurrPro_avgProbTimeWE'
p134
F0.619830937
tp135
a(S'CurrPro_avgProbTimeDeviationWE'
p136
F0.619830937
tp137
a(S'cumul_hintRatio'
p138
F0.903856905
tp139
a(S'CurrPro_medianProbTime'
p140
F0.995265779
tp141
a(S'TotalWETime'
p142
F1.003418917
tp143
a(S'cumul_RrightAppRatio'
p144
F1.007372656
tp145
a(S'PrightAppRatio'
p146
F1.282115551
tp147
a(S'cumul_easyProbAlternate'
p148
F1.30361396
tp149
a(S'easyProbAlternate'
p150
F1.30361396
tp151
a(S'probAlternate'
p152
F1.30361396
tp153
a(S'cumul_probAlternate'
p154
F1.30361396
tp155
a(S'cumul_easyProblemCountSolved'
p156
F1.663910257
tp157
a(S'probIndexPSinLevel'
p158
F1.879300632
tp159
a(S'CurrPro_avgProbTime'
p160
F2.291045266
tp161
a(S'CurrPro_avgProbTimeDeviationPS'
p162
F2.383172376
tp163
a(S'probIndexinLevel'
p164
F2.575834453
tp165
a(S'cumul_probIndexinLevel'
p166
F2.575834453
tp167
a(S'TotalTime'
p168
F2.62681022
tp169
a(S'cumul_avgstepTime'
p170
F2.703315972
tp171
a(S'cumul_avgstepTimePS'
p172
F2.718134207
tp173
a(S'ruleScoreMT'
p174
F2.785215099
tp175
a(S'NextStepClickCountWE'
p176
F2.831811541
tp177
a(S'ruleScoreDIST'
p178
F2.833356075
tp179
a(S'ruleScoreASSOC'
p180
F2.850218378
tp181
a(S'TotalPSTime'
p182
F2.912579876
tp183
a(S'cumul_AppRatio'
p184
F2.97423847
tp185
a(S'cumul_BlankRatio'
p186
F2.975444351
tp187
a(S'easyProblemCountSolved'
p188
F3.031319919
tp189
a(S'F1Score'
p190
F3.187246338
tp191
a(S'cumul_DirectProofActionCount'
p192
F3.431978762
tp193
a(S'ruleScoreCD'
p194
F3.43210214
tp195
a(S'cumul_AppCount'
p196
F3.822805262
tp197
a(S'cumul_FDActionCount'
p198
F4.03149079
tp199
a(S'cumul_actionCount'
p200
F4.059552283
tp201
a(S'cumul_Interaction'
p202
F4.286122179
tp203
a(S'ruleScoreDEM'
p204
F4.599319234
tp205
a(S'cumul_difficultProblemCountSolved'
p206
F4.619385093
tp207
a(S'stepTimeDeviation'
p208
F4.760824488
tp209
a(S'ruleScoreDS'
p210
F4.764330022
tp211
a(S'ruleScoreMP'
p212
F4.935938483
tp213
a(S'cumul_avgstepTimeWE'
p214
F5.109813896
tp215
a(S'RuleTypesCount'
p216
F5.235615925
tp217
a(S'ruleScoreIMPL'
p218
F5.258450181
tp219
a(S'ruleScoreHS'
p220
F5.417096267
tp221
a(S'cumul_TotalTime'
p222
F5.692384211
tp223
a(S'ruleScoreABS'
p224
F5.839284137
tp225
a(S'ruleScoreCONJ'
p226
F5.862699139
tp227
a(S'cumul_PrightAppRatio'
p228
F6.403310327
tp229
a(S'cumul_F1Score'
p230
F6.494549579
tp231
a(S'difficultProblemCountWE'
p232
F6.881755707
tp233
a(S'ruleScoreDN'
p234
F6.94800375
tp235
a(S'ruleScoreEXP'
p236
F7.303668042
tp237
a(S'difficultProblemCountSolved'
p238
F7.495904196
tp239
a(S'CurrPro_NumProbRule'
p240
F7.742928577
tp241
a(S'Level'
p242
F7.820938772
tp243
a(S'probDiff'
p244
F8.605472275
tp245
a(S'cumul_difficultProblemCountWE'
p246
F8.958987936
tp247
a(S'cumul_TotalPSTime'
p248
F9.119785008
tp249
aa(lp250
(S'NonPSelements'
p251
cnumpy.core.multiarray
scalar
p252
(cnumpy
dtype
p253
(S'f8'
p254
I0
I1
tp255
Rp256
(I3
S'<'
p257
NNNI-1
I-1
I0
tp258
bS'\xf3\xb8\x14L\xdc\x19"@'
p259
tp260
Rp261
tp262
a(S'InterfaceErrorCount'
p263
g252
(g256
S'\xb7\xbby\xd7\xff)"@'
p264
tp265
Rp266
tp267
a(S'Interaction'
p268
g252
(g256
S'\xf5\xd9<\x11\n5"@'
p269
tp270
Rp271
tp272
a(S'PrightAppRatio'
p273
g252
(g256
S'\xcbB\xc5g\x888"@'
p274
tp275
Rp276
tp277
a(S'UseCount'
p278
g252
(g256
S'\xba\xbewIj;"@'
p279
tp280
Rp281
tp282
a(S'RightApp'
p283
g252
(g256
S'\x19\xa4r\x7f\xf3="@'
p284
tp285
Rp286
tp287
a(S'deletedApp'
p288
g252
(g256
S'\xa7F\xba\x1bDA"@'
p289
tp290
Rp291
tp292
a(S'BDActionCount'
p293
g252
(g256
S'+\xcf\x15\x86aA"@'
p294
tp295
Rp296
tp297
a(S'WrongSemanticsApp'
p298
g252
(g256
S'\x9bA\xa9(\xb5c"@'
p299
tp300
Rp301
tp302
a(S'MorphCount'
p303
g252
(g256
S'\xfc\x9d\x08\x9c\x97\x8c"@'
p304
tp305
Rp306
tp307
a(S'englishSymbolicSwitchCount'
p308
g252
(g256
S'\xc0hY5\xb4\xeb"@'
p309
tp310
Rp311
tp312
a(S'ruleScoreCONJ'
p313
g252
(g256
S'~=a\xd1\x05\xb1#@'
p314
tp315
Rp316
tp317
a(S'ruleScoreMT'
p318
g252
(g256
S'R\xb8^\x08\xc4\xc3#@'
p319
tp320
Rp321
tp322
a(S'ruleScoreDIST'
p323
g252
(g256
S'd\xe3ybMi$@'
p324
tp325
Rp326
tp327
a(S'ruleScoreDEM'
p328
g252
(g256
S'\x8e#\xbe\xac\xb0r$@'
p329
tp330
Rp331
tp332
a(S'F1Score'
p333
g252
(g256
S'\xc4\x96%k1s$@'
p334
tp335
Rp336
tp337
a(S'UseWindowInfo'
p338
g252
(g256
S'S\xe7\x0cgk\x92$@'
p339
tp340
Rp341
tp342
a(S'SystemInfoHintCount'
p343
g252
(g256
S'\xbd\xc6Gk\xf7\xa6$@'
p344
tp345
Rp346
tp347
a(S'CurrPro_medianProbTime'
p348
g252
(g256
S"\x179\xf3\x1e'\xad$@"
p349
tp350
Rp351
tp352
a(S'FDActionCount'
p353
g252
(g256
S'\xa7\x81\x95m\xf4\xae$@'
p354
tp355
Rp356
tp357
a(S'actionCount'
p358
g252
(g256
S'\xa7\x81\x95m\xf4\xae$@'
p359
tp360
Rp361
tp362
a(S'AppCount'
p363
g252
(g256
S'\xf2\x15\xf4wY\xb1$@'
p364
tp365
Rp366
tp367
a(S'PrepCount'
p368
g252
(g256
S'\xeahx\xbd@\xb4$@'
p369
tp370
Rp371
tp372
a(S'DirectProofActionCount'
p373
g252
(g256
S'&\x8bhhZ\xb4$@'
p374
tp375
Rp376
tp377
a(S'RrightAppRatio'
p378
g252
(g256
S'mR\\\xd6_\xba$@'
p379
tp380
Rp381
tp382
a(S'OptionalCount'
p383
g252
(g256
S'\x10<\x11<\x9c\xba$@'
p384
tp385
Rp386
tp387
a(S'WrongApp'
p388
g252
(g256
S'"\xa3X\x97\xaa\xba$@'
p389
tp390
Rp391
tp392
a(S'WrongSyntaxApp'
p393
g252
(g256
S'oR\r[\x1f\xbc$@'
p394
tp395
Rp396
tp397
a(S'HoverHintCount'
p398
g252
(g256
S'\xc6\x1f\xd5\x96\xee\xc2$@'
p399
tp400
Rp401
tp402
a(S'cumul_NonPSelements'
p403
g252
(g256
S'\xf9\xaeJG!\xce$@'
p404
tp405
Rp406
tp407
a(S'cumul_easyProbAlternate'
p408
g252
(g256
S'fG\xdb\xafr\xec$@'
p409
tp410
Rp411
tp412
a(S'easyProbAlternate'
p413
g252
(g256
S'fG\xdb\xafr\xec$@'
p414
tp415
Rp416
tp417
a(S'cumul_probAlternate'
p418
g252
(g256
S'fG\xdb\xafr\xec$@'
p419
tp420
Rp421
tp422
a(S'probAlternate'
p423
g252
(g256
S'fG\xdb\xafr\xec$@'
p424
tp425
Rp426
tp427
a(S'ruleScoreCONTRA'
p428
g252
(g256
S'X\xccl\x87 \xff$@'
p429
tp430
Rp431
tp432
a(S'hintCount'
p433
g252
(g256
S' Q\x95D_\x07%@'
p434
tp435
Rp436
tp437
a(S'PreviousStepClickCountWE'
p438
g252
(g256
S"\x1c'as\xfc\x1a%@"
p439
tp440
Rp441
tp442
a(S'InDirectProofActionCount'
p443
g252
(g256
S'\xe4_O9\x8ca%@'
p444
tp445
Rp446
tp447
a(S'ruleScoreHS'
p448
g252
(g256
S"'E(\xe0\xc2i%@"
p449
tp450
Rp451
tp452
a(S'ruleScoreIMPL'
p453
g252
(g256
S'\x06\xdeJd\xdfy%@'
p454
tp455
Rp456
tp457
a(S'cumul_RightApp'
p458
g252
(g256
S'\x06\xc0T}A\xc3&@'
p459
tp460
Rp461
tp462
a(S'cumul_PrepCount'
p463
g252
(g256
S'Q}(\x03I\xdc&@'
p464
tp465
Rp466
tp467
a(S'cumul_OptionalCount'
p468
g252
(g256
S'\xca\x9d\xc8Z3\xeb&@'
p469
tp470
Rp471
tp472
a(S'cumul_TotalTime'
p473
g252
(g256
S']\xf1\x06_~\xfa&@'
p474
tp475
Rp476
tp477
a(S'hintRatio'
p478
g252
(g256
S"\x10\xfc\x0c\xad\x03R'@"
p479
tp480
Rp481
tp482
a(S'avgstepTime'
p483
g252
(g256
S"0\xc5\x9f\xaa\xe4\x9a'@"
p484
tp485
Rp486
tp487
a(S'cumul_Interaction'
p488
g252
(g256
S'\xa3\x8b\x82mwQ(@'
p489
tp490
Rp491
tp492
a(S'cumul_AppCount'
p493
g252
(g256
S'm\xb6@\xa0\xde`(@'
p494
tp495
Rp496
tp497
a(S'cumul_actionCount'
p498
g252
(g256
S'~X(~\xafg(@'
p499
tp500
Rp501
tp502
a(S'cumul_FDActionCount'
p503
g252
(g256
S'\x96\xa6\x89`Em(@'
p504
tp505
Rp506
tp507
a(S'cumul_DirectProofActionCount'
p508
g252
(g256
S'vY\xd2t1\x8c(@'
p509
tp510
Rp511
tp512
a(S'cumul_UseCount'
p513
g252
(g256
S'\xe0\x86\xee\xa3\xcb\xe9(@'
p514
tp515
Rp516
tp517
a(S'cumul_WrongApp'
p518
g252
(g256
S'\x1c\xc9\x10\xfb\x99\xeb(@'
p519
tp520
Rp521
tp522
a(S'cumul_WrongSemanticsApp'
p523
g252
(g256
S'\xf0x{1d\xed(@'
p524
tp525
Rp526
tp527
a(S'cumul_InterfaceErrorCount'
p528
g252
(g256
S'\x03@\xa8\xa3\xd6\xee(@'
p529
tp530
Rp531
tp532
a(S'cumul_InDirectProofActionCount'
p533
g252
(g256
S'\\\x9d\xa2#q\xf1(@'
p534
tp535
Rp536
tp537
a(S'cumul_MorphCount'
p538
g252
(g256
S'i\xcfa\x7f\xac\xf2(@'
p539
tp540
Rp541
tp542
a(S'cumul_BDActionCount'
p543
g252
(g256
S'\x02\x9c\xce\xbe\x94\xfa(@'
p544
tp545
Rp546
tp547
a(S'cumul_englishSymbolicSwitchCount'
p548
g252
(g256
S'\xd1\xe4\xa9\xd5\x1a\xfb(@'
p549
tp550
Rp551
tp552
a(S'cumul_SystemInfoHintCount'
p553
g252
(g256
S'?\x0c\xca\xbf/\x02)@'
p554
tp555
Rp556
tp557
a(S'TotalTime'
p558
g252
(g256
S'\x80k|UX-)@'
p559
tp560
Rp561
tp562
a(S'cumul_hintCount'
p563
g252
(g256
S'\xb3\x81\xe3"h`)@'
p564
tp565
Rp566
tp567
a(S'CurrPro_avgProbTimeWE'
p568
g252
(g256
S'\x1a\x16z\x90ne)@'
p569
tp570
Rp571
tp572
a(S'CurrPro_avgProbTimeDeviationWE'
p573
g252
(g256
S'\x1a\x16z\x90ne)@'
p574
tp575
Rp576
tp577
a(S'ruleScoreASSOC'
p578
g252
(g256
S'\xb8 \xb4_\xb2})@'
p579
tp580
Rp581
tp582
a(S'CurrPro_avgProbTime'
p583
g252
(g256
S'R\xa5\x11\x14n\xcc)@'
p584
tp585
Rp586
tp587
a(S'ruleScoreADD'
p588
g252
(g256
S']\xb19\x17d\x1d*@'
p589
tp590
Rp591
tp592
a(S'cumul_BlankRatio'
p593
g252
(g256
S'\xf9tG"\xc1+*@'
p594
tp595
Rp596
tp597
a(S'cumul_AppRatio'
p598
g252
(g256
S'A\x06\xf8\xfb\xd5+*@'
p599
tp600
Rp601
tp602
a(S'cumul_HoverHintCount'
p603
g252
(g256
S'\xe2g\xec\xfaT\xb3*@'
p604
tp605
Rp606
tp607
a(S'cumul_WrongSyntaxApp'
p608
g252
(g256
S'zx\x19\x16\x03\xc0*@'
p609
tp610
Rp611
tp612
a(S'CurrPro_avgProbTimePS'
p613
g252
(g256
S'W\xd2I\xb6\xb8\xdc*@'
p614
tp615
Rp616
tp617
a(S'NextStepClickCountWE'
p618
g252
(g256
S'\xcd\xf7\x1a\xc6o\xee*@'
p619
tp620
Rp621
tp622
a(S'easyProblemCountSolved'
p623
g252
(g256
S'>\xf7~\xca\xdd\xf3*@'
p624
tp625
Rp626
tp627
a(S'cumul_PreviousStepClickCountWE'
p628
g252
(g256
S'\xf0w\xfd\xe6\xc7\x0b+@'
p629
tp630
Rp631
tp632
a(S'cumul_F1Score'
p633
g252
(g256
S'un\x0f?\xa3>+@'
p634
tp635
Rp636
tp637
a(S'CurrPro_avgProbTimeDeviationPS'
p638
g252
(g256
S"\x1bs\xbdY'L+@"
p639
tp640
Rp641
tp642
a(S'easyProblemCountWE'
p643
g252
(g256
S'\xdcR\xcbPx\x80+@'
p644
tp645
Rp646
tp647
a(S'TotalPSTime'
p648
g252
(g256
S'J\xd8^\xa0B\x82+@'
p649
tp650
Rp651
tp652
a(S'avgstepTimePS'
p653
g252
(g256
S'/T4Qv\x98+@'
p654
tp655
Rp656
tp657
a(S'cumul_RrightAppRatio'
p658
g252
(g256
S'\xc4P{\x92\xe7\x03,@'
p659
tp660
Rp661
tp662
a(S'ruleScoreCD'
p663
g252
(g256
S'\xd0/7\x91\x17 ,@'
p664
tp665
Rp666
tp667
a(S'cumul_deletedApp'
p668
g252
(g256
S'\x86_\xc9\xb1oo,@'
p669
tp670
Rp671
tp672
a(S'cumul_PrightAppRatio'
p673
g252
(g256
S'\xb3@\xaf`\x87\xa3,@'
p674
tp675
Rp676
tp677
a(S'TotalWETime'
p678
g252
(g256
S'{\xe7!\xd6I1-@'
p679
tp680
Rp681
tp682
a(S'ruleScoreEXP'
p683
g252
(g256
S' C\x15#\x844-@'
p684
tp685
Rp686
tp687
a(S'ruleScoreDS'
p688
g252
(g256
S'\xa7\xa1\xcf\xa7)>-@'
p689
tp690
Rp691
tp692
a(S'RuleTypesCount'
p693
g252
(g256
S']\xbe\xba_%y-@'
p694
tp695
Rp696
tp697
a(S'ruleScoreMP'
p698
g252
(g256
S'\x87a4\xdeC\x0e.@'
p699
tp700
Rp701
tp702
a(S'cumul_avgstepTimePS'
p703
g252
(g256
S'\x8a\x88\x83p\xefT.@'
p704
tp705
Rp706
tp707
a(S'cumul_NextStepClickCountWE'
p708
g252
(g256
S'\x14i=\xc6\xa3\x07/@'
p709
tp710
Rp711
tp712
a(S'SeenWEinLevel'
p713
g252
(g256
S'x}^\x9aKb/@'
p714
tp715
Rp716
tp717
a(S'probIndexPSinLevel'
p718
g252
(g256
S'd\x02\xb7\xf7<\xec/@'
p719
tp720
Rp721
tp722
a(S'cumul_avgstepTime'
p723
g252
(g256
S'\x07\x90y\xff\x16\xee/@'
p724
tp725
Rp726
tp727
a(S'cumul_hintRatio'
p728
g252
(g256
S'\x06\xe75\x02\xc3\x1a0@'
p729
tp730
Rp731
tp732
a(S'AppRatio'
p733
g252
(g256
S'\xa2\x85g6\x9aW0@'
p734
tp735
Rp736
tp737
a(S'BlankRatio'
p738
g252
(g256
S'\xa2\x85g6\x9aW0@'
p739
tp740
Rp741
tp742
a(S'NewLevel'
p743
g252
(g256
S'\xfd|\xc9\xb6\x81b0@'
p744
tp745
Rp746
tp747
a(S'SolvedPSInLevel'
p748
g252
(g256
S' Q\xd2\x94ks0@'
p749
tp750
Rp751
tp752
a(S'cumul_difficultProblemCountSolved'
p753
g252
(g256
S'\xd01HK\x02\x830@'
p754
tp755
Rp756
tp757
a(S'difficultProblemCountWE'
p758
g252
(g256
S'\x997\xe8N\xc0\xc40@'
p759
tp760
Rp761
tp762
a(S'cumul_TotalWETime'
p763
g252
(g256
S'|\x12:\xe6D\xd40@'
p764
tp765
Rp766
tp767
a(S'ruleScoreABS'
p768
g252
(g256
S'F\x87\x1e\xec\xff\x161@'
p769
tp770
Rp771
tp772
a(S'cumul_UseWindowInfo'
p773
g252
(g256
S'\x81C\x1dHhI1@'
p774
tp775
Rp776
tp777
a(S'cumul_RuleTypesCount'
p778
g252
(g256
S'@M\xb9.\xaa.2@'
p779
tp780
Rp781
tp782
a(S'ruleScoreCOM'
p783
g252
(g256
S'B\xc4\x88\xd5\xe0\x822@'
p784
tp785
Rp786
tp787
a(S'stepTimeDeviation'
p788
g252
(g256
S'C\xfc\x934\xec\xd82@'
p789
tp790
Rp791
tp792
a(S'ruleScoreEQUIV'
p793
g252
(g256
S'\xdb\xcb\xb6=j\xe02@'
p794
tp795
Rp796
tp797
a(S'CurrPro_NumProbRule'
p798
g252
(g256
S'\x1fkq\xc9=$3@'
p799
tp800
Rp801
tp802
a(S'cumul_symbolicRepresentationCount'
p803
g252
(g256
S'\xfc\xad{\xce\x16~3@'
p804
tp805
Rp806
tp807
a(S'ruleScoreTAUT'
p808
g252
(g256
S'\x8a\xed;U\xfd\xec3@'
p809
tp810
Rp811
tp812
a(S'symbolicRepresentationCount'
p813
g252
(g256
S'\x8f\xd5\x07\xb9\xafR4@'
p814
tp815
Rp816
tp817
a(S'ruleScoreSIMP'
p818
g252
(g256
S'd\x85\xc6M\xc6\xdf4@'
p819
tp820
Rp821
tp822
a(S'cumul_easyProblemCountSolved'
p823
g252
(g256
S'\x95\x82Z6\xb3r5@'
p824
tp825
Rp826
tp827
a(S'cumul_avgstepTimeWE'
p828
g252
(g256
S'\xb2x\t\xa8@\xac6@'
p829
tp830
Rp831
tp832
a(S'cumul_easyProblemCountWE'
p833
g252
(g256
S'\xfeU7\xfe\xf8\xc46@'
p834
tp835
Rp836
tp837
a(S'Level'
p838
g252
(g256
S'\xa8F}\xbb\xe2-9@'
p839
tp840
Rp841
tp842
a(S'probIndexinLevel'
p843
g252
(g256
S'\xd2\xd78-\xd7\x04;@'
p844
tp845
Rp846
tp847
a(S'cumul_probIndexinLevel'
p848
g252
(g256
S'\xd2\xd78-\xd7\x04;@'
p849
tp850
Rp851
tp852
a(S'ruleScoreDN'
p853
g252
(g256
S'\xa2\x04\x82\xa2<i;@'
p854
tp855
Rp856
tp857
a(S'probDiff'
p858
g252
(g256
S'\xdc\xc4\xc9e\xdcf<@'
p859
tp860
Rp861
tp862
a(S'cumul_difficultProblemCountWE'
p863
g252
(g256
S'\x8c0\xab\xcc=\x8bA@'
p864
tp865
Rp866
tp867
a(S'difficultProblemCountSolved'
p868
g252
(g256
S'$\x1bs\xa1v\xe4E@'
p869
tp870
Rp871
tp872
aa(lp873
(g593
g252
(g256
S'\x9b\n\xb0\xcet\r9@'
p874
tp875
Rp876
tp877
a(g598
g252
(g256
S'\xea\x00\x8e\x0b~\x149@'
p878
tp879
Rp880
tp881
a(g743
g252
(g256
S'M:\xdc\xb4\x11\x10@@'
p882
tp883
Rp884
tp885
a(g693
g252
(g256
S'\xa4\x02\xaf\x80\xc6\x99A@'
p886
tp887
Rp888
tp889
a(g348
g252
(g256
S'\x1c\x9c\x1b\xd6\x94\xf1B@'
p890
tp891
Rp892
tp893
a(g863
g252
(g256
S'8\xd6G\x89x\x08C@'
p894
tp895
Rp896
tp897
a(g558
g252
(g256
S'\xe7t_\xc9\x9ceC@'
p898
tp899
Rp900
tp901
a(g638
g252
(g256
S'\xdf(?t\xf5\x95C@'
p902
tp903
Rp904
tp905
a(g753
g252
(g256
S'|\x02<\xee\xf8\xdbC@'
p906
tp907
Rp908
tp909
a(g778
g252
(g256
S'\x15h\xb3\xcb&BD@'
p910
tp911
Rp912
tp913
a(g648
g252
(g256
S'\x13nt@\nND@'
p914
tp915
Rp916
tp917
a(g333
g252
(g256
S'1\x12\xc2\xce@cD@'
p918
tp919
Rp920
tp921
a(g478
g252
(g256
S'\x98\xe1\x92\xc7\xe5\xc9D@'
p922
tp923
Rp924
tp925
a(g378
g252
(g256
S'\x0e\xdc\xe4\x13\xc3\x17E@'
p926
tp927
Rp928
tp929
a(g268
g252
(g256
S'P\xf7\xaa\xc6\xe8\x18E@'
p930
tp931
Rp932
tp933
a(g353
g252
(g256
S'9\xd1\x03\xec\x02 E@'
p934
tp935
Rp936
tp937
a(g358
g252
(g256
S'9\xd1\x03\xec\x02 E@'
p938
tp939
Rp940
tp941
a(g363
g252
(g256
S'\xaa\xbb\xf3^\xf6#E@'
p942
tp943
Rp944
tp945
a(g373
g252
(g256
S'V\xa0\xcc\xbfY)E@'
p946
tp947
Rp948
tp949
a(g758
g252
(g256
S'\x1a!\x1f\t5_E@'
p950
tp951
Rp952
tp953
a(g433
g252
(g256
S'\xab\x88}p\xd0\x9cE@'
p954
tp955
Rp956
tp957
a(g273
g252
(g256
S'r\xcf_F\xa5\xa8E@'
p958
tp959
Rp960
tp961
a(g263
g252
(g256
S'\x94q;.\xdc\xb6E@'
p962
tp963
Rp964
tp965
a(g518
g252
(g256
S'\x97\xdb\x05\x06\x96\xc1E@'
p966
tp967
Rp968
tp969
a(g338
g252
(g256
S'\xee\xc0\xe0\\\xc0\xc6E@'
p970
tp971
Rp972
tp973
a(g523
g252
(g256
S'O|\xca\xf6\x9d\xcbE@'
p974
tp975
Rp976
tp977
a(g768
g252
(g256
S'\x88V\xec\x7fO\xcfE@'
p978
tp979
Rp980
tp981
a(g251
g252
(g256
S'\x81 C\x94\xef\xcfE@'
p982
tp983
Rp984
tp985
a(g458
g252
(g256
S'\xa2\x05\xc4^<\xd1E@'
p986
tp987
Rp988
tp989
a(g528
g252
(g256
S'\xd9i\x88\x1a\xbd\xd3E@'
p990
tp991
Rp992
tp993
a(g493
g252
(g256
S'\x86\x97k\x83G\xd6E@'
p994
tp995
Rp996
tp997
a(g343
g252
(g256
S'9\xb62c\xdf\xd9E@'
p998
tp999
Rp1000
tp1001
a(g293
g252
(g256
S'~~!\x99\x11\xdcE@'
p1002
tp1003
Rp1004
tp1005
a(g543
g252
(g256
S'\xe7#Z\xb2r\xdcE@'
p1006
tp1007
Rp1008
tp1009
a(g538
g252
(g256
S'\x0f\x08\xa7\xfar\xddE@'
p1010
tp1011
Rp1012
tp1013
a(g278
g252
(g256
S'YYt\x88?\xdeE@'
p1014
tp1015
Rp1016
tp1017
a(g603
g252
(g256
S'\xf2\xd0\xd3J\t\xdfE@'
p1018
tp1019
Rp1020
tp1021
a(g668
g252
(g256
S'\xc2\xb9\x06\x82\n\xe0E@'
p1022
tp1023
Rp1024
tp1025
a(g503
g252
(g256
S'\xefF\xcaL\xa9\xe2E@'
p1026
tp1027
Rp1028
tp1029
a(g388
g252
(g256
S'\x06\xac\x12jD\xe3E@'
p1030
tp1031
Rp1032
tp1033
a(g383
g252
(g256
S'\xdd\xbc\x0f\xc3\x0f\xe5E@'
p1034
tp1035
Rp1036
tp1037
a(g553
g252
(g256
S'8D\x9fH\x83\xe5E@'
p1038
tp1039
Rp1040
tp1041
a(g298
g252
(g256
S'\xb6x*gN\xe6E@'
p1042
tp1043
Rp1044
tp1045
a(g398
g252
(g256
S'\x0c\xde\x0b\xb0\x15\xe8E@'
p1046
tp1047
Rp1048
tp1049
a(g498
g252
(g256
S'F\x1d\xfb\x82p\xe9E@'
p1050
tp1051
Rp1052
tp1053
a(g368
g252
(g256
S'+\xb6\x80GA\xedE@'
p1054
tp1055
Rp1056
tp1057
a(g283
g252
(g256
S'{&\x10\x17\xb4\xf2E@'
p1058
tp1059
Rp1060
tp1061
a(g303
g252
(g256
S'n\x97\x05\x14\x12\xf9E@'
p1062
tp1063
Rp1064
tp1065
a(g533
g252
(g256
S'\xa0\x96\x97\x06\x14\xffE@'
p1066
tp1067
Rp1068
tp1069
a(g393
g252
(g256
S'gR\x8b\xe7(\xffE@'
p1070
tp1071
Rp1072
tp1073
a(g438
g252
(g256
S'1\x02awm\xffE@'
p1074
tp1075
Rp1076
tp1077
a(g628
g252
(g256
S'\x02\xf0_\x12\xb6\x04F@'
p1078
tp1079
Rp1080
tp1081
a(g583
g252
(g256
S'\xff\x91\x1b\x1c\x1e\x0eF@'
p1082
tp1083
Rp1084
tp1085
a(g443
g252
(g256
S'\x18{\xea\n-\x1cF@'
p1086
tp1087
Rp1088
tp1089
a(g288
g252
(g256
S'\x89\x94C\x1c|#F@'
p1090
tp1091
Rp1092
tp1093
a(g618
g252
(g256
S'\xf6$\xb16\xde^F@'
p1094
tp1095
Rp1096
tp1097
a(g508
g252
(g256
S'y\xd5}\xc4\xc3_F@'
p1098
tp1099
Rp1100
tp1101
a(g623
g252
(g256
S'\x92\\\x9e|jgF@'
p1102
tp1103
Rp1104
tp1105
a(g828
g252
(g256
S'\x13\x00\xd8T\x9blF@'
p1106
tp1107
Rp1108
tp1109
a(g488
g252
(g256
S'\xf4\x9f\xad\xc6;zF@'
p1110
tp1111
Rp1112
tp1113
a(g643
g252
(g256
S'f\x9a\xfcG@|F@'
p1114
tp1115
Rp1116
tp1117
a(g713
g252
(g256
S'\xa7@\xb6\xb6!\x85F@'
p1118
tp1119
Rp1120
tp1121
a(g798
g252
(g256
S'\xda\xff\xa9\xa1Z\xa9F@'
p1122
tp1123
Rp1124
tp1125
a(g708
g252
(g256
S'\xcewt\\\x99\xa9F@'
p1126
tp1127
Rp1128
tp1129
a(g483
g252
(g256
S'2BDz\xd9\xbbF@'
p1130
tp1131
Rp1132
tp1133
a(g653
g252
(g256
S'\xcf~J\xb0\xbb\xbfF@'
p1134
tp1135
Rp1136
tp1137
a(g843
g252
(g256
S'\xc2\x81|n\xef\xc9F@'
p1138
tp1139
Rp1140
tp1141
a(g848
g252
(g256
S'\xc2\x81|n\xef\xc9F@'
p1142
tp1143
Rp1144
tp1145
a(g728
g252
(g256
S'Y\x1f\xab\x98E\x11G@'
p1146
tp1147
Rp1148
tp1149
a(g513
g252
(g256
S'\x1dh\xbc\x84\xcd\x12G@'
p1150
tp1151
Rp1152
tp1153
a(g468
g252
(g256
S'\x0e1\x1a\xdbT\x18G@'
p1154
tp1155
Rp1156
tp1157
a(g608
g252
(g256
S'`\x9b\xc72Q\x19G@'
p1158
tp1159
Rp1160
tp1161
a(g678
g252
(g256
S'\xba\x10\r\x8cR\x1cG@'
p1162
tp1163
Rp1164
tp1165
a(g403
g252
(g256
S'\xf7\r\x06@\xb2DG@'
p1166
tp1167
Rp1168
tp1169
a(g658
g252
(g256
S'a\x12\xe8\xef\xe6gG@'
p1170
tp1171
Rp1172
tp1173
a(g588
g252
(g256
S'\xe8m{\xf6\x19\xc5G@'
p1174
tp1175
Rp1176
tp1177
a(g733
g252
(g256
S'\xcf!\xe6\x0f>\xd3G@'
p1178
tp1179
Rp1180
tp1181
a(g738
g252
(g256
S'\xd0!\xe6\x0f>\xd3G@'
p1182
tp1183
Rp1184
tp1185
a(g813
g252
(g256
S'\x9f\x00W\x10\xa3\xecG@'
p1186
tp1187
Rp1188
tp1189
a(g473
g252
(g256
S'\t\xbd\xe2\xfa\xb1\xfcG@'
p1190
tp1191
Rp1192
tp1193
a(g318
g252
(g256
S'Q\x15\xb7\xea\x19\x02H@'
p1194
tp1195
Rp1196
tp1197
a(g548
g252
(g256
S'D\xe9\xc2\x9d\xfa\x1eH@'
p1198
tp1199
Rp1200
tp1201
a(g673
g252
(g256
S'\xe4\x9b\xb1\xf3\x8f$H@'
p1202
tp1203
Rp1204
tp1205
a(g663
g252
(g256
S'\xa2.(\x98~|H@'
p1206
tp1207
Rp1208
tp1209
a(g463
g252
(g256
S'.+\x927>\x88H@'
p1210
tp1211
Rp1212
tp1213
a(g703
g252
(g256
S'$\x9d\x15\x06\x19\xc0H@'
p1214
tp1215
Rp1216
tp1217
a(g613
g252
(g256
S'\x8d\xcd\x1e\x06\x8f\xc2H@'
p1218
tp1219
Rp1220
tp1221
a(g633
g252
(g256
S'=\x1a\x16\xfa\xe6,I@'
p1222
tp1223
Rp1224
tp1225
a(g718
g252
(g256
S'\x0c\xd53\xfc\x7fKI@'
p1226
tp1227
Rp1228
tp1229
a(g723
g252
(g256
S"B\x1e'\xbe3cI@"
p1230
tp1231
Rp1232
tp1233
a(g858
g252
(g256
S'\x00{\x14GP\xbdI@'
p1234
tp1235
Rp1236
tp1237
a(g823
g252
(g256
S'\x9d\x8f\x86o\xf4\xebI@'
p1238
tp1239
Rp1240
tp1241
a(g688
g252
(g256
S'\x0cI\x06\xe4\xbf\xedI@'
p1242
tp1243
Rp1244
tp1245
a(g428
g252
(g256
S'\xbc\x06\xbc\x1f(\xb6J@'
p1246
tp1247
Rp1248
tp1249
a(g698
g252
(g256
S'\x00-QQ\xa0\x03K@'
p1250
tp1251
Rp1252
tp1253
a(g773
g252
(g256
S'\x8cn\x87\t\xb0@K@'
p1254
tp1255
Rp1256
tp1257
a(g323
g252
(g256
S'\x8a;\xa5\xda*]K@'
p1258
tp1259
Rp1260
tp1261
a(g308
g252
(g256
S'\x1e\xd7\x93\xa73\xabK@'
p1262
tp1263
Rp1264
tp1265
a(g788
g252
(g256
S'e\xff\xe1,\xf1\xccK@'
p1266
tp1267
Rp1268
tp1269
a(g568
g252
(g256
S'\x11\xe1\r/l\xfcK@'
p1270
tp1271
Rp1272
tp1273
a(g573
g252
(g256
S'\x11\xe1\r/l\xfcK@'
p1274
tp1275
Rp1276
tp1277
a(g578
g252
(g256
S'z5}\xfa\xcb\rL@'
p1278
tp1279
Rp1280
tp1281
a(g748
g252
(g256
S'\xf4\xb3el\xc4\x9eL@'
p1282
tp1283
Rp1284
tp1285
a(g803
g252
(g256
S'\x921Yqs\xb0L@'
p1286
tp1287
Rp1288
tp1289
a(g408
g252
(g256
S'\xb2\x05\xc0>\x06\xddL@'
p1290
tp1291
Rp1292
tp1293
a(g413
g252
(g256
S'\xb2\x05\xc0>\x06\xddL@'
p1294
tp1295
Rp1296
tp1297
a(g418
g252
(g256
S'\xb2\x05\xc0>\x06\xddL@'
p1298
tp1299
Rp1300
tp1301
a(g423
g252
(g256
S'\xb2\x05\xc0>\x06\xddL@'
p1302
tp1303
Rp1304
tp1305
a(g833
g252
(g256
S'\xccfk\xc0\xf7rM@'
p1306
tp1307
Rp1308
tp1309
a(g783
g252
(g256
S'\xde\xa1\x08I^\x97M@'
p1310
tp1311
Rp1312
tp1313
a(g763
g252
(g256
S'\rrQ\xa4\x9a\xa2M@'
p1314
tp1315
Rp1316
tp1317
a(g313
g252
(g256
S'I\x9c\x9b_\x98\xd7M@'
p1318
tp1319
Rp1320
tp1321
a(g818
g252
(g256
S'J\x05>-C\x02N@'
p1322
tp1323
Rp1324
tp1325
a(g563
g252
(g256
S'\xa8\x95;\xf0\xf6\xc7N@'
p1326
tp1327
Rp1328
tp1329
a(g448
g252
(g256
S'2dB\xfb\xe2\xf9N@'
p1330
tp1331
Rp1332
tp1333
a(g453
g252
(g256
S'\xc2\x15\xb6w\x10\x1cP@'
p1334
tp1335
Rp1336
tp1337
a(g328
g252
(g256
S'\x83d\x19g-]P@'
p1338
tp1339
Rp1340
tp1341
a(g683
g252
(g256
S'.\xf7\x17<OtQ@'
p1342
tp1343
Rp1344
tp1345
a(g808
g252
(g256
S'&\x18\xb4\xb6\xb3\x05R@'
p1346
tp1347
Rp1348
tp1349
a(g853
g252
(g256
S'\xfd\t\x18\x15\xed\xc3S@'
p1350
tp1351
Rp1352
tp1353
a(g838
g252
(g256
S'70\x05\xb3\xba\xb3X@'
p1354
tp1355
Rp1356
tp1357
a(g793
g252
(g256
S'\x01\xb9\x1d\xc46Ta@'
p1358
tp1359
Rp1360
tp1361
aa(lp1362
(g753
g252
(g256
S'\xbc\xf7\xe4\xe0R\xd0B@'
p1363
tp1364
Rp1365
tp1366
a(g718
g252
(g256
S'\x00\x1f}\xe9B"D@'
p1367
tp1368
Rp1369
tp1370
a(g748
g252
(g256
S'\xc8\xc4\x19\x01T\xa0F@'
p1371
tp1372
Rp1373
tp1374
a(g788
g252
(g256
S'\xf2\xa3\xa3G\xa7;G@'
p1375
tp1376
Rp1377
tp1378
a(g843
g252
(g256
S'?\xcc\xec\x12\x8f{G@'
p1379
tp1380
Rp1381
tp1382
a(g848
g252
(g256
S'?\xcc\xec\x12\x8f{G@'
p1383
tp1384
Rp1385
tp1386
a(g653
g252
(g256
S',\x97)7\x9aHI@'
p1387
tp1388
Rp1389
tp1390
a(g658
g252
(g256
S'\x95\xdbp\x9dh!K@'
p1391
tp1392
Rp1393
tp1394
a(g448
g252
(g256
S'\xd7M\x0c\xd4\xf9\xccO@'
p1395
tp1396
Rp1397
tp1398
a(g478
g252
(g256
S'\xcd\xfd\xe3<\x9f\x07Q@'
p1399
tp1400
Rp1401
tp1402
a(g348
g252
(g256
S'T\x83\x97(\x8f\xf3Q@'
p1403
tp1404
Rp1405
tp1406
a(g733
g252
(g256
S'(Z\xa9\xa4\xea4S@'
p1407
tp1408
Rp1409
tp1410
a(g738
g252
(g256
S')Z\xa9\xa4\xea4S@'
p1411
tp1412
Rp1413
tp1414
a(g483
g252
(g256
S'\x066\xa5\xcaI;T@'
p1415
tp1416
Rp1417
tp1418
a(g798
g252
(g256
S'\x8c\xaf\xec\xd5\xa7\xb5T@'
p1419
tp1420
Rp1421
tp1422
a(g728
g252
(g256
S'T\x08\x8d\xf3\x01\rV@'
p1423
tp1424
Rp1425
tp1426
a(g583
g252
(g256
S'\x8d=qK\x08TV@'
p1427
tp1428
Rp1429
tp1430
a(g863
g252
(g256
S'\xcfz\xd1\x06^KW@'
p1431
tp1432
Rp1433
tp1434
a(g648
g252
(g256
S';\x03^\xe5\x14LW@'
p1435
tp1436
Rp1437
tp1438
a(g593
g252
(g256
S'\xc6`\xe8\xf8\x1d\xf6W@'
p1439
tp1440
Rp1441
tp1442
a(g598
g252
(g256
S'2fx\x12r\xf7W@'
p1443
tp1444
Rp1445
tp1446
a(g473
g252
(g256
S'\xaa\xfa\xc6\xe1\xca\x0fY@'
p1447
tp1448
Rp1449
tp1450
a(g663
g252
(g256
S'\x88\x17W\xb0dMY@'
p1451
tp1452
Rp1453
tp1454
a(g578
g252
(g256
S'.g\xd1\x06\xf7iY@'
p1455
tp1456
Rp1457
tp1458
a(g613
g252
(g256
S'd!\xb0\r\xd2}Y@'
p1459
tp1460
Rp1461
tp1462
a(g813
g252
(g256
S'\xf7^t\xabp\xd9Z@'
p1463
tp1464
Rp1465
tp1466
a(g778
g252
(g256
S'\x97\x1akG\xfb\xebZ@'
p1467
tp1468
Rp1469
tp1470
a(g828
g252
(g256
S'R\x87\\\xf2\xb6\x1e[@'
p1471
tp1472
Rp1473
tp1474
a(g693
g252
(g256
S'\xa1\xb9\x89w\n [@'
p1475
tp1476
Rp1477
tp1478
a(g638
g252
(g256
S'_<\\\x16bD[@'
p1479
tp1480
Rp1481
tp1482
a(g323
g252
(g256
S'\xd4F\xbc`\xe9W[@'
p1483
tp1484
Rp1485
tp1486
a(g723
g252
(g256
S'\x9d\xea\xc4E\x1d\xbe[@'
p1487
tp1488
Rp1489
tp1490
a(g703
g252
(g256
S'&\xf0<\xd2?\xcc[@'
p1491
tp1492
Rp1493
tp1494
a(g858
g252
(g256
S'\xcc\x89,(&\xe6[@'
p1495
tp1496
Rp1497
tp1498
a(g743
g252
(g256
S'\x96]\xc8\xa0\xd4\x18]@'
p1499
tp1500
Rp1501
tp1502
a(g808
g252
(g256
S'wh\xbf\x8a\xadt]@'
p1503
tp1504
Rp1505
tp1506
a(g683
g252
(g256
S'\x16=\x11\x1ae\xe9]@'
p1507
tp1508
Rp1509
tp1510
a(g758
g252
(g256
S'\xe6\xfa\x07\x8fV@^@'
p1511
tp1512
Rp1513
tp1514
a(g823
g252
(g256
S'\xd2\x7f\xad\x1aT\xf5_@'
p1515
tp1516
Rp1517
tp1518
a(g318
g252
(g256
S'\x06\xcf\xf5\x16\xee3`@'
p1519
tp1520
Rp1521
tp1522
a(g428
g252
(g256
S'\xc3\xbe\x8d\xc7\xd5R`@'
p1523
tp1524
Rp1525
tp1526
a(g768
g252
(g256
S'_ax$Q{`@'
p1527
tp1528
Rp1529
tp1530
a(g568
g252
(g256
S'\xc2y,8\xbc\x98`@'
p1531
tp1532
Rp1533
tp1534
a(g573
g252
(g256
S'\xc2y,8\xbc\x98`@'
p1535
tp1536
Rp1537
tp1538
a(g698
g252
(g256
S'|1\xbd9!\xd0`@'
p1539
tp1540
Rp1541
tp1542
a(g623
g252
(g256
S'\x08\xe5\xa8\x94\xa1\xda`@'
p1543
tp1544
Rp1545
tp1546
a(g308
g252
(g256
S'}Z\xc3eq\xdf`@'
p1547
tp1548
Rp1549
tp1550
a(g488
g252
(g256
S'$N\x8b\xa8\x02\xf0`@'
p1551
tp1552
Rp1553
tp1554
a(g313
g252
(g256
S'\\\xc0\xeb\xab\x95\xf2`@'
p1555
tp1556
Rp1557
tp1558
a(g643
g252
(g256
S'\xdb:\x88\xb1\xd9\xf3`@'
p1559
tp1560
Rp1561
tp1562
a(g493
g252
(g256
S'\x1b\xde\xad\x83\xc9\xff`@'
p1563
tp1564
Rp1565
tp1566
a(g498
g252
(g256
S'\xdc\x1a9\xec\xfe\x05a@'
p1567
tp1568
Rp1569
tp1570
a(g503
g252
(g256
S';\x8f\x82-\x99\ta@'
p1571
tp1572
Rp1573
tp1574
a(g408
g252
(g256
S'\xe6\xd4\xda\xc3\xe3\x1aa@'
p1575
tp1576
Rp1577
tp1578
a(g413
g252
(g256
S'\xe6\xd4\xda\xc3\xe3\x1aa@'
p1579
tp1580
Rp1581
tp1582
a(g418
g252
(g256
S'\xe6\xd4\xda\xc3\xe3\x1aa@'
p1583
tp1584
Rp1585
tp1586
a(g423
g252
(g256
S'\xe6\xd4\xda\xc3\xe3\x1aa@'
p1587
tp1588
Rp1589
tp1590
a(g558
g252
(g256
S'\xb0f\xab\xc4_&a@'
p1591
tp1592
Rp1593
tp1594
a(g508
g252
(g256
S'\xf8\x8a?\xe1\x98(a@'
p1595
tp1596
Rp1597
tp1598
a(g458
g252
(g256
S':\xe8I\xe4!,a@'
p1599
tp1600
Rp1601
tp1602
a(g263
g252
(g256
S'D#\xe0\xa1\xb13a@'
p1603
tp1604
Rp1605
tp1606
a(g548
g252
(g256
S'\xbd\x8b\x08\xbc\x85<a@'
p1607
tp1608
Rp1609
tp1610
a(g463
g252
(g256
S'\xda\xa7\x98\x89\xb7<a@'
p1611
tp1612
Rp1613
tp1614
a(g338
g252
(g256
S'_\xfd\x8ce\xc3>a@'
p1615
tp1616
Rp1617
tp1618
a(g528
g252
(g256
S'f\xb7\xa0[O@a@'
p1619
tp1620
Rp1621
tp1622
a(g773
g252
(g256
S'\x04\x81\xc2\x8a\x95Aa@'
p1623
tp1624
Rp1625
tp1626
a(g523
g252
(g256
S'\x94\xb4\x9b\x80\xdfAa@'
p1627
tp1628
Rp1629
tp1630
a(g518
g252
(g256
S'\xc4M\xcf\xe3hBa@'
p1631
tp1632
Rp1633
tp1634
a(g513
g252
(g256
S'\xb2^\xb4\xe3\xfaDa@'
p1635
tp1636
Rp1637
tp1638
a(g803
g252
(g256
S'\xcc{/|\xbaGa@'
p1639
tp1640
Rp1641
tp1642
a(g468
g252
(g256
S'\xa8.\x9c\xe6\x9fHa@'
p1643
tp1644
Rp1645
tp1646
a(g608
g252
(g256
S'M\x1c\xba\r\x1dIa@'
p1647
tp1648
Rp1649
tp1650
a(g343
g252
(g256
S'\xe2\xfd\x8e\xf3_Na@'
p1651
tp1652
Rp1653
tp1654
a(g538
g252
(g256
S'\xf3\xf1e\xdf\xd4Na@'
p1655
tp1656
Rp1657
tp1658
a(g668
g252
(g256
S'/c\xa3W8Oa@'
p1659
tp1660
Rp1661
tp1662
a(g543
g252
(g256
S'q\xef\x98\xf3sOa@'
p1663
tp1664
Rp1665
tp1666
a(g278
g252
(g256
S']\xd2\x8d\x1d\xefOa@'
p1667
tp1668
Rp1669
tp1670
a(g293
g252
(g256
S'\x86Bv{%Pa@'
p1671
tp1672
Rp1673
tp1674
a(g403
g252
(g256
S'\x01\xebJ\xd1JPa@'
p1675
tp1676
Rp1677
tp1678
a(g438
g252
(g256
S'\x94\x8b\xca\xe8CRa@'
p1679
tp1680
Rp1681
tp1682
a(g251
g252
(g256
S' \xa1\x96U\xc6Ra@'
p1683
tp1684
Rp1685
tp1686
a(g383
g252
(g256
S'L\xcf/\x95ISa@'
p1687
tp1688
Rp1689
tp1690
a(g388
g252
(g256
S'\xbcq2\xe1nSa@'
p1691
tp1692
Rp1693
tp1694
a(g368
g252
(g256
S'\xd6\xe2:,\xaeSa@'
p1695
tp1696
Rp1697
tp1698
a(g553
g252
(g256
S'\xb6rUWsTa@'
p1699
tp1700
Rp1701
tp1702
a(g393
g252
(g256
S')\x12\xbc\xb65Ua@'
p1703
tp1704
Rp1705
tp1706
a(g298
g252
(g256
S'4\x8c#\xa6WUa@'
p1707
tp1708
Rp1709
tp1710
a(g288
g252
(g256
S'\xbd\xb5;Q\xc7[a@'
p1711
tp1712
Rp1713
tp1714
a(g688
g252
(g256
S'\x81]\xd2\x1a\xaf]a@'
p1715
tp1716
Rp1717
tp1718
a(g628
g252
(g256
S'\xe7)N\xe9\xc2ba@'
p1719
tp1720
Rp1721
tp1722
a(g533
g252
(g256
S'\xf2\xa3\x86X\xb4ca@'
p1723
tp1724
Rp1725
tp1726
a(g783
g252
(g256
S'9\xde\x0b\x88\x80ia@'
p1727
tp1728
Rp1729
tp1730
a(g443
g252
(g256
S'\x1a\r\xdd\nIja@'
p1731
tp1732
Rp1733
tp1734
a(g433
g252
(g256
S'\xdf\x81\x9ch\xc0za@'
p1735
tp1736
Rp1737
tp1738
a(g678
g252
(g256
S'\xca(\xce\xac\x05\x9ba@'
p1739
tp1740
Rp1741
tp1742
a(g618
g252
(g256
S'\xa1\x14l\xdc/\xa8a@'
p1743
tp1744
Rp1745
tp1746
a(g563
g252
(g256
S'5\xb5\x8d\x84\xd4\xb2a@'
p1747
tp1748
Rp1749
tp1750
a(g833
g252
(g256
S'\x173\xd1\xe28\xbda@'
p1751
tp1752
Rp1753
tp1754
a(g713
g252
(g256
S'\xa9\xbe\x17;\x06\xcda@'
p1755
tp1756
Rp1757
tp1758
a(g588
g252
(g256
S'\x12\xf6\xa6j\xd9+b@'
p1759
tp1760
Rp1761
tp1762
a(g708
g252
(g256
S'\xac\xff\xf6\xf5\xa1Eb@'
p1763
tp1764
Rp1765
tp1766
a(g283
g252
(g256
S'\x9d\xe2\xf1\xbd)\x8ab@'
p1767
tp1768
Rp1769
tp1770
a(g303
g252
(g256
S'\x0f\x18\xf3\x93C\x99b@'
p1771
tp1772
Rp1773
tp1774
a(g838
g252
(g256
S'A\x98\x10\x04`\xecb@'
p1775
tp1776
Rp1777
tp1778
a(g398
g252
(g256
S'\xd0\x89\x92n\xb5\xfcb@'
p1779
tp1780
Rp1781
tp1782
a(g603
g252
(g256
S'\x82}\xb5\x19V\x08c@'
p1783
tp1784
Rp1785
tp1786
a(g378
g252
(g256
S'\xfa*\xf0w\xb3\xc7c@'
p1787
tp1788
Rp1789
tp1790
a(g818
g252
(g256
S'\xf2\xd3p\x18Zyd@'
p1791
tp1792
Rp1793
tp1794
a(g853
g252
(g256
S'\xb6\xd5\xebk\xe5Fe@'
p1795
tp1796
Rp1797
tp1798
a(g328
g252
(g256
S'\xea\xbe\xcf\x00\x07Xe@'
p1799
tp1800
Rp1801
tp1802
a(g763
g252
(g256
S'\x9f}\xcd\x1e\x8e\xf0g@'
p1803
tp1804
Rp1805
tp1806
a(g453
g252
(g256
S'\xb6%\xdb\x9dH0k@'
p1807
tp1808
Rp1809
tp1810
a(g353
g252
(g256
S'=\xee\xb81~\xeco@'
p1811
tp1812
Rp1813
tp1814
a(g358
g252
(g256
S'>\xee\xb81~\xeco@'
p1815
tp1816
Rp1817
tp1818
a(g268
g252
(g256
S'\xb5\xf6\xe0\xf2\x82\xeco@'
p1819
tp1820
Rp1821
tp1822
a(g363
g252
(g256
S'\xae\x1f\xeb9V\xeeo@'
p1823
tp1824
Rp1825
tp1826
a(g673
g252
(g256
S'\x9c$\x86\xa7]\x11p@'
p1827
tp1828
Rp1829
tp1830
a(g273
g252
(g256
S'd\xed\xc1\xb0\x94\x11p@'
p1831
tp1832
Rp1833
tp1834
a(g633
g252
(g256
S'K\xad\xa4UP9p@'
p1835
tp1836
Rp1837
tp1838
a(g373
g252
(g256
S'_*{\xb8\xfb:p@'
p1839
tp1840
Rp1841
tp1842
a(g333
g252
(g256
S'\x07\xef\xe9\xaf\x1a_p@'
p1843
tp1844
Rp1845
tp1846
aa(lp1847
(g753
g252
(g256
S't\xdb\xceN\x89GD@'
p1848
tp1849
Rp1850
tp1851
a(g798
g252
(g256
S'/,\x92nqJE@'
p1852
tp1853
Rp1854
tp1855
a(g718
g252
(g256
S'\xad\xda\xf00\xc0\xb0E@'
p1856
tp1857
Rp1858
tp1859
a(g843
g252
(g256
S'F\x82XY\xbf\xd0E@'
p1860
tp1861
Rp1862
tp1863
a(g848
g252
(g256
S'F\x82XY\xbf\xd0E@'
p1864
tp1865
Rp1866
tp1867
a(g748
g252
(g256
S'\xcb*\xd71bgF@'
p1868
tp1869
Rp1870
tp1871
a(g348
g252
(g256
S'9\xc3\xdd(BoH@'
p1872
tp1873
Rp1874
tp1875
a(g653
g252
(g256
S'\x10\x8f=\x99{\xdcH@'
p1876
tp1877
Rp1878
tp1879
a(g583
g252
(g256
S'\xab\xd5x\xd0>\xf9I@'
p1880
tp1881
Rp1882
tp1883
a(g613
g252
(g256
S'Z\xf9C\x82\xa4\xbeK@'
p1884
tp1885
Rp1886
tp1887
a(g448
g252
(g256
S'"4\x00\xdf6\xfaM@'
p1888
tp1889
Rp1890
tp1891
a(g483
g252
(g256
S'\x04\x03\xe5\x06L\tT@'
p1892
tp1893
Rp1894
tp1895
a(g323
g252
(g256
S'H\x8cH\xabC=[@'
p1896
tp1897
Rp1898
tp1899
a(g693
g252
(g256
S'\x7fw\x91\xad3\xe8[@'
p1900
tp1901
Rp1902
tp1903
a(g658
g252
(g256
S'n\xa9\xd9\x8d*n^@'
p1904
tp1905
Rp1906
tp1907
a(g828
g252
(g256
S'k\x95\x0b\x0e\x86\x06a@'
p1908
tp1909
Rp1910
tp1911
a(g788
g252
(g256
S'\xbc\x15\x92\t\x8a\x12a@'
p1912
tp1913
Rp1914
tp1915
a(g488
g252
(g256
S'\xf4\x1a\x0b\x99\xd0\xa5a@'
p1916
tp1917
Rp1918
tp1919
a(g493
g252
(g256
S'\xfb\xac\xae\x86\x8a\xb3a@'
p1920
tp1921
Rp1922
tp1923
a(g498
g252
(g256
S'3\xac^\xc5E\xbfa@'
p1924
tp1925
Rp1926
tp1927
a(g503
g252
(g256
S'-]\xf9\x89W\xc3a@'
p1928
tp1929
Rp1930
tp1931
a(g508
g252
(g256
S"\xa6\xd7'&\xb6!b@"
p1932
tp1933
Rp1934
tp1935
a(g763
g252
(g256
S'\x90}\xf2J\x80\xf9c@'
p1936
tp1937
Rp1938
tp1939
a(g728
g252
(g256
S'\xd8\x92kq\xb3od@'
p1940
tp1941
Rp1942
tp1943
a(g733
g252
(g256
S'9\x02\xd2\xd4\x84\xbcd@'
p1944
tp1945
Rp1946
tp1947
a(g738
g252
(g256
S'9\x02\xd2\xd4\x84\xbcd@'
p1948
tp1949
Rp1950
tp1951
a(g863
g252
(g256
S'\xed\xa9Q\x9a\x9b\xefd@'
p1952
tp1953
Rp1954
tp1955
a(g813
g252
(g256
S'\xbe\xc4\x95\x1c*\x98e@'
p1956
tp1957
Rp1958
tp1959
a(g698
g252
(g256
S'\xec\xbb\xac\xe5\xdb\xd7e@'
p1960
tp1961
Rp1962
tp1963
a(g478
g252
(g256
S'\xc0\x94\xd4G/\xfee@'
p1964
tp1965
Rp1966
tp1967
a(g688
g252
(g256
S'\x08b\x96\xbc\xe2\x0cg@'
p1968
tp1969
Rp1970
tp1971
a(g778
g252
(g256
S'\xf9\xa0B\x8f\xa5}g@'
p1972
tp1973
Rp1974
tp1975
a(g578
g252
(g256
S'\xdco\xef\xe3\xd3\x9bg@'
p1976
tp1977
Rp1978
tp1979
a(g318
g252
(g256
S'0\x9aH7z\xaag@'
p1980
tp1981
Rp1982
tp1983
a(g663
g252
(g256
S'\xba\xa6a\xaaw\xd1g@'
p1984
tp1985
Rp1986
tp1987
a(g588
g252
(g256
S'$\xb3\xf6\x92\x1c\xd4g@'
p1988
tp1989
Rp1990
tp1991
a(g593
g252
(g256
S"d\xa5Vj\t'h@"
p1992
tp1993
Rp1994
tp1995
a(g598
g252
(g256
S"r\xf8\xee\x1c')h@"
p1996
tp1997
Rp1998
tp1999
a(g648
g252
(g256
S'\xc8z+w`\xbbh@'
p2000
tp2001
Rp2002
tp2003
a(g743
g252
(g256
S'p\x9fF\xfd\xd8\xdbh@'
p2004
tp2005
Rp2006
tp2007
a(g638
g252
(g256
S'-\xa4\xe7\xdfN.i@'
p2008
tp2009
Rp2010
tp2011
a(g858
g252
(g256
S'\xdb\xc9\xbd\x85\xa8Li@'
p2012
tp2013
Rp2014
tp2015
a(g703
g252
(g256
S'tS3\xf5;\x1dj@'
p2016
tp2017
Rp2018
tp2019
a(g283
g252
(g256
S'\xee\xc8\x9c\xf8t\xd0j@'
p2020
tp2021
Rp2022
tp2023
a(g723
g252
(g256
S'j2\xd4\rs$k@'
p2024
tp2025
Rp2026
tp2027
a(g268
g252
(g256
S'Wn\x05\xa30Pk@'
p2028
tp2029
Rp2030
tp2031
a(g353
g252
(g256
S'\x12\xdb\x94\xfe\xd7ak@'
p2032
tp2033
Rp2034
tp2035
a(g358
g252
(g256
S'\x12\xdb\x94\xfe\xd7ak@'
p2036
tp2037
Rp2038
tp2039
a(g363
g252
(g256
S'\x02\xa8\x88\xd2\x81uk@'
p2040
tp2041
Rp2042
tp2043
a(g303
g252
(g256
S'x*LR\xfb\xa0k@'
p2044
tp2045
Rp2046
tp2047
a(g473
g252
(g256
S'\x0cw\xd5PN\xcak@'
p2048
tp2049
Rp2050
tp2051
a(g458
g252
(g256
S'\x11B\x9co\xb3\rl@'
p2052
tp2053
Rp2054
tp2055
a(g758
g252
(g256
S'\x9b\xb0:\x11nAl@'
p2056
tp2057
Rp2058
tp2059
a(g823
g252
(g256
S'{\t\xae\x14\x1b\x87l@'
p2060
tp2061
Rp2062
tp2063
a(g533
g252
(g256
S'b\x81\xb3\x91\xf2\x8bl@'
p2064
tp2065
Rp2066
tp2067
a(g378
g252
(g256
S'\xa9\xdfN\xcbk\xdel@'
p2068
tp2069
Rp2070
tp2071
a(g568
g252
(g256
S'B7\rI\xdc\xf6l@'
p2072
tp2073
Rp2074
tp2075
a(g573
g252
(g256
S'C7\rI\xdc\xf6l@'
p2076
tp2077
Rp2078
tp2079
a(g263
g252
(g256
S'X\x0e\xad\xdc\x02!m@'
p2080
tp2081
Rp2082
tp2083
a(g373
g252
(g256
S'\x92\x88a\x99\x17Km@'
p2084
tp2085
Rp2086
tp2087
a(g428
g252
(g256
S'\x9f\xa8\xed\xc4\xcfjm@'
p2088
tp2089
Rp2090
tp2091
a(g308
g252
(g256
S'\x04\x99\xf3\x8cS\xbem@'
p2092
tp2093
Rp2094
tp2095
a(g683
g252
(g256
S'VF\xf6\x06\xdf\x10n@'
p2096
tp2097
Rp2098
tp2099
a(g443
g252
(g256
S'8\x1e\x9b;\xb4 n@'
p2100
tp2101
Rp2102
tp2103
a(g538
g252
(g256
S'|q\x06\xcb\xc4}n@'
p2104
tp2105
Rp2106
tp2107
a(g808
g252
(g256
S'\xcc\xfd\xa2\x90\xd3\x80n@'
p2108
tp2109
Rp2110
tp2111
a(g398
g252
(g256
S'\x91\xc5\xc9O_\x83n@'
p2112
tp2113
Rp2114
tp2115
a(g368
g252
(g256
S'\x943\xd8\xfc\xca\xbbn@'
p2116
tp2117
Rp2118
tp2119
a(g528
g252
(g256
S'\x9e\x80\xd4\xde\r\x03o@'
p2120
tp2121
Rp2122
tp2123
a(g603
g252
(g256
S'o/\xe4%\xe5\x1eo@'
p2124
tp2125
Rp2126
tp2127
a(g388
g252
(g256
S'\xb2\xde=\xc8&$o@'
p2128
tp2129
Rp2130
tp2131
a(g668
g252
(g256
S'`(;[\x87Io@'
p2132
tp2133
Rp2134
tp2135
a(g393
g252
(g256
S'\xe7\xcf\xfe\x02\xc6[o@'
p2136
tp2137
Rp2138
tp2139
a(g288
g252
(g256
S'j\xb9O\xaf0{o@'
p2140
tp2141
Rp2142
tp2143
a(g313
g252
(g256
S'\x9c\xb1|\xbbD~o@'
p2144
tp2145
Rp2146
tp2147
a(g673
g252
(g256
S'\x82%\xab>\xda\xaeo@'
p2148
tp2149
Rp2150
tp2151
a(g833
g252
(g256
S'\x11\xac\x01g\xc9\xcco@'
p2152
tp2153
Rp2154
tp2155
a(g408
g252
(g256
S'\x06(>\x1d\xa0\xf1o@'
p2156
tp2157
Rp2158
tp2159
a(g413
g252
(g256
S'\x06(>\x1d\xa0\xf1o@'
p2160
tp2161
Rp2162
tp2163
a(g418
g252
(g256
S'\x06(>\x1d\xa0\xf1o@'
p2164
tp2165
Rp2166
tp2167
a(g423
g252
(g256
S'\x06(>\x1d\xa0\xf1o@'
p2168
tp2169
Rp2170
tp2171
a(g273
g252
(g256
S'\xbf\x04\xc8\xa3\xe3\x10p@'
p2172
tp2173
Rp2174
tp2175
a(g558
g252
(g256
S'\x9b\x81HJ9\x13p@'
p2176
tp2177
Rp2178
tp2179
a(g643
g252
(g256
S'\xa8\x1d\xe4J\xb0\x15p@'
p2180
tp2181
Rp2182
tp2183
a(g803
g252
(g256
S';\xdf\xdd\x9a\xa3%p@'
p2184
tp2185
Rp2186
tp2187
a(g713
g252
(g256
S'\xe8\x8ds\xd5\x8c5p@'
p2188
tp2189
Rp2190
tp2191
a(g278
g252
(g256
S'D\x11\x8e\xa6\x999p@'
p2192
tp2193
Rp2194
tp2195
a(g783
g252
(g256
S'-\xee\xd2\xd5K:p@'
p2196
tp2197
Rp2198
tp2199
a(g298
g252
(g256
S'\x96\x11\xba\xab\x88;p@'
p2200
tp2201
Rp2202
tp2203
a(g623
g252
(g256
S'ka\xdfl\x94@p@'
p2204
tp2205
Rp2206
tp2207
a(g403
g252
(g256
S'.\xc0\x85yaHp@'
p2208
tp2209
Rp2210
tp2211
a(g548
g252
(g256
S'\x9f\x93\xd1\xce\xaaHp@'
p2212
tp2213
Rp2214
tp2215
a(g463
g252
(g256
S'\xfb\xc7\xff\x89\x90Ip@'
p2216
tp2217
Rp2218
tp2219
a(g513
g252
(g256
S']8\x1d\xa4\x19Op@'
p2220
tp2221
Rp2222
tp2223
a(g773
g252
(g256
S')OPcPOp@'
p2224
tp2225
Rp2226
tp2227
a(g523
g252
(g256
S'4KB3\xd0Op@'
p2228
tp2229
Rp2230
tp2231
a(g383
g252
(g256
S'\xad\xd7\r\x85VPp@'
p2232
tp2233
Rp2234
tp2235
a(g608
g252
(g256
S'\x13/\x1c\x84\xb2Pp@'
p2236
tp2237
Rp2238
tp2239
a(g338
g252
(g256
S'\xa9\xfb\xc6\xc8\xbcPp@'
p2240
tp2241
Rp2242
tp2243
a(g518
g252
(g256
S'\x91\x8a\xba^\xedPp@'
p2244
tp2245
Rp2246
tp2247
a(g468
g252
(g256
S'\xf0;\x04\xd3BWp@'
p2248
tp2249
Rp2250
tp2251
a(g438
g252
(g256
S'\xa9\xd4L>*Xp@'
p2252
tp2253
Rp2254
tp2255
a(g343
g252
(g256
S'b2\xf9\xb4J\\p@'
p2256
tp2257
Rp2258
tp2259
a(g543
g252
(g256
S's\x1a|}E]p@'
p2260
tp2261
Rp2262
tp2263
a(g293
g252
(g256
S'\x12\tQ0b]p@'
p2264
tp2265
Rp2266
tp2267
a(g553
g252
(g256
S'\xce\x04\x85\xc8\x9a`p@'
p2268
tp2269
Rp2270
tp2271
a(g251
g252
(g256
S'\xea\x0e\xf7pDep@'
p2272
tp2273
Rp2274
tp2275
a(g563
g252
(g256
S'\xe4a\xd6\xc9\xcfjp@'
p2276
tp2277
Rp2278
tp2279
a(g433
g252
(g256
S'T\xff7\xb8\x93op@'
p2280
tp2281
Rp2282
tp2283
a(g628
g252
(g256
S'\xe6\x8a\xf9(\x17pp@'
p2284
tp2285
Rp2286
tp2287
a(g678
g252
(g256
S'\x80\xab\xdavW\x85p@'
p2288
tp2289
Rp2290
tp2291
a(g633
g252
(g256
S'\xbc\xf6\x95[\x05\xa0p@'
p2292
tp2293
Rp2294
tp2295
a(g618
g252
(g256
S'\xc8Q-]\x17\xa1p@'
p2296
tp2297
Rp2298
tp2299
a(g768
g252
(g256
S'\x1e\xa5\x7f\xc6]\xc7p@'
p2300
tp2301
Rp2302
tp2303
a(g708
g252
(g256
S'm\xe9\x7f\xce?Yq@'
p2304
tp2305
Rp2306
tp2307
a(g838
g252
(g256
S'\xb3\x03\x9c\xed\xa9\x15r@'
p2308
tp2309
Rp2310
tp2311
a(g818
g252
(g256
S'\xab\xf7\xd9\x89\x02br@'
p2312
tp2313
Rp2314
tp2315
a(g853
g252
(g256
S'\xc5\xcf4\x10\xd2\x9fr@'
p2316
tp2317
Rp2318
tp2319
a(g328
g252
(g256
S'?\x8b\x98\xf4\xa7]s@'
p2320
tp2321
Rp2322
tp2323
a(g453
g252
(g256
S'\xcc\x1a\xa1;\x9e\xe3v@'
p2324
tp2325
Rp2326
tp2327
aa(lp2328
(g843
g252
(g256
S'}^\xb1\x84QqD@'
p2329
tp2330
Rp2331
tp2332
a(g848
g252
(g256
S'}^\xb1\x84QqD@'
p2333
tp2334
Rp2335
tp2336
a(g753
g252
(g256
S'\xbb\x02\x0b!\x88\xddD@'
p2337
tp2338
Rp2339
tp2340
a(g718
g252
(g256
S'n\xa1\'\x95\xfc"E@'
p2341
tp2342
Rp2343
tp2344
a(g748
g252
(g256
S'\xac\xf3s\xcd\x99\xe6E@'
p2345
tp2346
Rp2347
tp2348
a(g798
g252
(g256
S'\xfe\xc2(k>&H@'
p2349
tp2350
Rp2351
tp2352
a(g653
g252
(g256
S'\x14\xde\x1b\x8f\xbeLI@'
p2353
tp2354
Rp2355
tp2356
a(g348
g252
(g256
S'\xf0\xe7\x18\xb9\x14\x84J@'
p2357
tp2358
Rp2359
tp2360
a(g583
g252
(g256
S'l\xe0\x9aK.\x92J@'
p2361
tp2362
Rp2363
tp2364
a(g613
g252
(g256
S'\xfa\x85nI \xc6M@'
p2365
tp2366
Rp2367
tp2368
a(g448
g252
(g256
S'\xe2&G(\x92\xc9N@'
p2369
tp2370
Rp2371
tp2372
a(g483
g252
(g256
S'b\x92\\\xb7M\tX@'
p2373
tp2374
Rp2375
tp2376
a(g658
g252
(g256
S'C\x0e\xd2\x04T\xce^@'
p2377
tp2378
Rp2379
tp2380
a(g693
g252
(g256
S'\xc5\xe6\x8b(S\x08b@'
p2381
tp2382
Rp2383
tp2384
a(g323
g252
(g256
S'\x13B\xfc\xc9\x04\rb@'
p2385
tp2386
Rp2387
tp2388
a(g763
g252
(g256
S'$W\x1f\xdd\xa4\xffc@'
p2389
tp2390
Rp2391
tp2392
a(g788
g252
(g256
S'\xd4\x9e\xcc\xac\xe1re@'
p2393
tp2394
Rp2395
tp2396
a(g863
g252
(g256
S'OX\xaf\x92\xb4\xd0e@'
p2397
tp2398
Rp2399
tp2400
a(g828
g252
(g256
S'\x9b\x06\x05\xd9\xb0\xfag@'
p2401
tp2402
Rp2403
tp2404
a(g743
g252
(g256
S'\xb0\xb8@N~\xa0h@'
p2405
tp2406
Rp2407
tp2408
a(g493
g252
(g256
S'r\xe4\x8f\x94F\xe3h@'
p2409
tp2410
Rp2411
tp2412
a(g488
g252
(g256
S'1\x05\xe5F\xee\xeeh@'
p2413
tp2414
Rp2415
tp2416
a(g498
g252
(g256
S'\xac?\xa5\x99d\xf5h@'
p2417
tp2418
Rp2419
tp2420
a(g503
g252
(g256
S'\xc33\xb4\xc3a\xfeh@'
p2421
tp2422
Rp2423
tp2424
a(g508
g252
(g256
S'\x86\\\x15\xd6\x90\x9ci@'
p2425
tp2426
Rp2427
tp2428
a(g728
g252
(g256
S'H\xf8\x98\xa3\x8f\xe9j@'
p2429
tp2430
Rp2431
tp2432
a(g813
g252
(g256
S'bl\xf7!\xed\x1bk@'
p2433
tp2434
Rp2435
tp2436
a(g638
g252
(g256
S'\xba"K7\x1eLk@'
p2437
tp2438
Rp2439
tp2440
a(g588
g252
(g256
S'v_7\xee\\\x10l@'
p2441
tp2442
Rp2443
tp2444
a(g698
g252
(g256
S'\xbdy\xbc\x91\x19zl@'
p2445
tp2446
Rp2447
tp2448
a(g733
g252
(g256
S'\xe5\x0bhCR\xeal@'
p2449
tp2450
Rp2451
tp2452
a(g738
g252
(g256
S'\xe5\x0bhCR\xeal@'
p2453
tp2454
Rp2455
tp2456
a(g318
g252
(g256
S'q\xfe\xe2\xc6w\xebm@'
p2457
tp2458
Rp2459
tp2460
a(g568
g252
(g256
S'K:;\x98EAn@'
p2461
tp2462
Rp2463
tp2464
a(g573
g252
(g256
S'K:;\x98EAn@'
p2465
tp2466
Rp2467
tp2468
a(g688
g252
(g256
S'K3\xf5A\x0eqn@'
p2469
tp2470
Rp2471
tp2472
a(g663
g252
(g256
S'#\xa3\xb2i\x00\x02p@'
p2473
tp2474
Rp2475
tp2476
a(g648
g252
(g256
S'C\x15\xe4\xfd\xf4,p@'
p2477
tp2478
Rp2479
tp2480
a(g593
g252
(g256
S'\x10\xe1nU\xb4\x84p@'
p2481
tp2482
Rp2483
tp2484
a(g598
g252
(g256
S'\x8f\xc0\x8e\xf4\xdb\x86p@'
p2485
tp2486
Rp2487
tp2488
a(g778
g252
(g256
S'\xdf\xd8\xdc\xbb\xed\x90p@'
p2489
tp2490
Rp2491
tp2492
a(g838
g252
(g256
S'\xcc\xe7\x99R\xd5\xaep@'
p2493
tp2494
Rp2495
tp2496
a(g858
g252
(g256
S'7\x0c\x9b4A\xafp@'
p2497
tp2498
Rp2499
tp2500
a(g478
g252
(g256
S'\xa2>`\x1d~\xb7p@'
p2501
tp2502
Rp2503
tp2504
a(g473
g252
(g256
S'N#\x16\x88<qq@'
p2505
tp2506
Rp2507
tp2508
a(g703
g252
(g256
S'\x0c\xb7\x85\x92O\x85q@'
p2509
tp2510
Rp2511
tp2512
a(g723
g252
(g256
S'E,\x99uc\xa5q@'
p2513
tp2514
Rp2515
tp2516
a(g578
g252
(g256
S'\x83gu\xc4\x05\x81r@'
p2517
tp2518
Rp2519
tp2520
a(g283
g252
(g256
S'Xkc\x986\xf6r@'
p2521
tp2522
Rp2523
tp2524
a(g458
g252
(g256
S'4\xb4S^\x9a s@'
p2525
tp2526
Rp2527
tp2528
a(g268
g252
(g256
S'\xac\xf9\x88v\x800s@'
p2529
tp2530
Rp2531
tp2532
a(g353
g252
(g256
S'\xce\xb0\xd9\xf7\x05Xs@'
p2533
tp2534
Rp2535
tp2536
a(g358
g252
(g256
S'\xd5\x97\x89\x9c\x98Xs@'
p2537
tp2538
Rp2539
tp2540
a(g363
g252
(g256
S'\xb0v}\xc6\xf7hs@'
p2541
tp2542
Rp2543
tp2544
a(g758
g252
(g256
S'\xc4\xc2_bM\x80s@'
p2545
tp2546
Rp2547
tp2548
a(g303
g252
(g256
S'\x94\x1e\xf8\xac\x1a\xa6s@'
p2549
tp2550
Rp2551
tp2552
a(g263
g252
(g256
S'w~7\x17\xe8\xb3s@'
p2553
tp2554
Rp2555
tp2556
a(g308
g252
(g256
S'\x8b\xea\xab\x02\xb7\xeas@'
p2557
tp2558
Rp2559
tp2560
a(g373
g252
(g256
S"\xd3;\xa4\xf0\\'t@"
p2561
tp2562
Rp2563
tp2564
a(g378
g252
(g256
S'\xc5\x84\x14\x9b\xde*t@'
p2565
tp2566
Rp2567
tp2568
a(g673
g252
(g256
S'\n\xdb$\xc4\x82=t@'
p2569
tp2570
Rp2571
tp2572
a(g683
g252
(g256
S'l\x19\\G(\x80t@'
p2573
tp2574
Rp2575
tp2576
a(g823
g252
(g256
S'e\xec\x8d\x8c\xa0\x8bt@'
p2577
tp2578
Rp2579
tp2580
a(g538
g252
(g256
S'@\x98};\xa9\x95t@'
p2581
tp2582
Rp2583
tp2584
a(g533
g252
(g256
S'"\x12~\x07\xd6\xa7t@'
p2585
tp2586
Rp2587
tp2588
a(g368
g252
(g256
S'u\x9fm\xb5/\xbdt@'
p2589
tp2590
Rp2591
tp2592
a(g428
g252
(g256
S'lVT\xf0r\xf0t@'
p2593
tp2594
Rp2595
tp2596
a(g603
g252
(g256
S'\xbb:7\xfa\xae\xfbt@'
p2597
tp2598
Rp2599
tp2600
a(g398
g252
(g256
S'\x0c~\x01L\x03\nu@'
p2601
tp2602
Rp2603
tp2604
a(g393
g252
(g256
S'\x8e\x8e\xb4\x15\xcc\x0cu@'
p2605
tp2606
Rp2607
tp2608
a(g668
g252
(g256
S'}\x8c}\x83\xa4\ru@'
p2609
tp2610
Rp2611
tp2612
a(g528
g252
(g256
S'uK@\xfd(\x17u@'
p2613
tp2614
Rp2615
tp2616
a(g388
g252
(g256
S'f\xd4QG\x12)u@'
p2617
tp2618
Rp2619
tp2620
a(g443
g252
(g256
S'\xda\x88\xbe\x8b,3u@'
p2621
tp2622
Rp2623
tp2624
a(g273
g252
(g256
S'd\x96\xa5\x08\xb2Au@'
p2625
tp2626
Rp2627
tp2628
a(g288
g252
(g256
S'<\xeb\xd7Q\x97\x99u@'
p2629
tp2630
Rp2631
tp2632
a(g313
g252
(g256
S'\x83\xbb5\xe0g\x9cu@'
p2633
tp2634
Rp2635
tp2636
a(g558
g252
(g256
S'\xd9h\xd6\x8f\x1b\xafu@'
p2637
tp2638
Rp2639
tp2640
a(g808
g252
(g256
S'\x8b]>\xcd\x19\xd1u@'
p2641
tp2642
Rp2643
tp2644
a(g853
g252
(g256
S'[\x07L\xa6z\xe9u@'
p2645
tp2646
Rp2647
tp2648
a(g408
g252
(g256
S'\xd2$\xf0\xe7\xd5/v@'
p2649
tp2650
Rp2651
tp2652
a(g413
g252
(g256
S'\xd2$\xf0\xe7\xd5/v@'
p2653
tp2654
Rp2655
tp2656
a(g418
g252
(g256
S'\xd2$\xf0\xe7\xd5/v@'
p2657
tp2658
Rp2659
tp2660
a(g423
g252
(g256
S'\xd2$\xf0\xe7\xd5/v@'
p2661
tp2662
Rp2663
tp2664
a(g833
g252
(g256
S'\xcff\xc9\xe2\xedUv@'
p2665
tp2666
Rp2667
tp2668
a(g678
g252
(g256
S'\xeeu\xbb]3\x88v@'
p2669
tp2670
Rp2671
tp2672
a(g768
g252
(g256
S'\xb7\xed\x04*\xa9\x90v@'
p2673
tp2674
Rp2675
tp2676
a(g251
g252
(g256
S'\xfc6\xdd\n\xc0\x9av@'
p2677
tp2678
Rp2679
tp2680
a(g643
g252
(g256
S'-\x10n\x03\xfd\x9dv@'
p2681
tp2682
Rp2683
tp2684
a(g713
g252
(g256
S'\xee\x89\x1ft?\xa1v@'
p2685
tp2686
Rp2687
tp2688
a(g773
g252
(g256
S'\x97\xeb]\xfam\xa4v@'
p2689
tp2690
Rp2691
tp2692
a(g298
g252
(g256
S'k\xc0\x00a/\xa8v@'
p2693
tp2694
Rp2695
tp2696
a(g628
g252
(g256
S'\xa3\xd9\x19 \xb5\xaav@'
p2697
tp2698
Rp2699
tp2700
a(g803
g252
(g256
S'\xf8\xf1\r\x9c\x9d\xabv@'
p2701
tp2702
Rp2703
tp2704
a(g338
g252
(g256
S'Sw\xe0\xea\x0f\xb1v@'
p2705
tp2706
Rp2707
tp2708
a(g623
g252
(g256
S'\xc7\xfc\x92\xb9T\xb5v@'
p2709
tp2710
Rp2711
tp2712
a(g783
g252
(g256
S'nPs\xdb+\xc4v@'
p2713
tp2714
Rp2715
tp2716
a(g563
g252
(g256
S'\xb8\xe6\xc5\xab\xc3\xcdv@'
p2717
tp2718
Rp2719
tp2720
a(g608
g252
(g256
S'\xa0\xe3\xf2W\xe0\xcev@'
p2721
tp2722
Rp2723
tp2724
a(g438
g252
(g256
S'\xe4\xa2e\xf15\xd0v@'
p2725
tp2726
Rp2727
tp2728
a(g513
g252
(g256
S'\nd\xf0@\xe7\xd3v@'
p2729
tp2730
Rp2731
tp2732
a(g518
g252
(g256
S'\x83f\xda\xba:\xd8v@'
p2733
tp2734
Rp2735
tp2736
a(g278
g252
(g256
S'Q\xfb\xbf\xf3\x16\xd9v@'
p2737
tp2738
Rp2739
tp2740
a(g343
g252
(g256
S'-\xd8h\x8e,\xd9v@'
p2741
tp2742
Rp2743
tp2744
a(g548
g252
(g256
S'\x17\xb1\x15i\x02\xdbv@'
p2745
tp2746
Rp2747
tp2748
a(g463
g252
(g256
S'8\xa4\xa8\xfd)\xdcv@'
p2749
tp2750
Rp2751
tp2752
a(g553
g252
(g256
S'q\x13\xb0\x943\xdfv@'
p2753
tp2754
Rp2755
tp2756
a(g618
g252
(g256
S'\xee\xf1\xb5\x1e\x99\xe4v@'
p2757
tp2758
Rp2759
tp2760
a(g383
g252
(g256
S'\xf8\xc0\xcd\xf9~\xe5v@'
p2761
tp2762
Rp2763
tp2764
a(g468
g252
(g256
S'\x9e\x8f}@\xe3\xe9v@'
p2765
tp2766
Rp2767
tp2768
a(g523
g252
(g256
S'l\xbd\x03R\x0b\xf3v@'
p2769
tp2770
Rp2771
tp2772
a(g293
g252
(g256
S'\xfaEp\xd4?\xfav@'
p2773
tp2774
Rp2775
tp2776
a(g403
g252
(g256
S'^(\xdd\x16@\xfav@'
p2777
tp2778
Rp2779
tp2780
a(g543
g252
(g256
S'7\x91\x99\x98b\xfav@'
p2781
tp2782
Rp2783
tp2784
a(g633
g252
(g256
S'\tX\x9e\\q\x02w@'
p2785
tp2786
Rp2787
tp2788
a(g328
g252
(g256
S'\x81\x9c\xad[u\x19w@'
p2789
tp2790
Rp2791
tp2792
a(g433
g252
(g256
S'\xf2\xdfL\xb3\xb2\x85w@'
p2793
tp2794
Rp2795
tp2796
a(g708
g252
(g256
S'\xe4\x9a\xaf+`\x9ew@'
p2797
tp2798
Rp2799
tp2800
a(g818
g252
(g256
S'n\xe3xQ\x7f\x92x@'
p2801
tp2802
Rp2803
tp2804
aa(lp2805
(g843
g252
(g256
S'j/e\x8c\xe1\xc6B@'
p2806
tp2807
Rp2808
tp2809
a(g848
g252
(g256
S'j/e\x8c\xe1\xc6B@'
p2810
tp2811
Rp2812
tp2813
a(g753
g252
(g256
S'\xcdR\xd1\x167_F@'
p2814
tp2815
Rp2816
tp2817
a(g718
g252
(g256
S'\xd2\xed\x13\xe5\x1d\x01G@'
p2818
tp2819
Rp2820
tp2821
a(g748
g252
(g256
S'\xb5\x8d*\xe3\x12\xe1G@'
p2822
tp2823
Rp2824
tp2825
a(g348
g252
(g256
S'\xf7\xd9\x8f\xead\x82J@'
p2826
tp2827
Rp2828
tp2829
a(g653
g252
(g256
S'\xf0\xb9\xaa\xd2L_K@'
p2830
tp2831
Rp2832
tp2833
a(g798
g252
(g256
S'#)\x9a\xc3x\xd6K@'
p2834
tp2835
Rp2836
tp2837
a(g583
g252
(g256
S'.\xaa\xd3\x15\xddzM@'
p2838
tp2839
Rp2840
tp2841
a(g613
g252
(g256
S'\xba\x811V\xf9\tN@'
p2842
tp2843
Rp2844
tp2845
a(g448
g252
(g256
S'N\xfa\xe6z-\x7fO@'
p2846
tp2847
Rp2848
tp2849
a(g483
g252
(g256
S':4\x86\xc4\xa37Y@'
p2850
tp2851
Rp2852
tp2853
a(g693
g252
(g256
S'\x98\x98G\xd4\x15[b@'
p2854
tp2855
Rp2856
tp2857
a(g658
g252
(g256
S'\x1e8V\x06\xaamb@'
p2858
tp2859
Rp2860
tp2861
a(g323
g252
(g256
S'\x07\x07\xa4\t\xf9\xe7c@'
p2862
tp2863
Rp2864
tp2865
a(g763
g252
(g256
S'f\xa7\xb6\x1e\xbf\x93d@'
p2866
tp2867
Rp2868
tp2869
a(g863
g252
(g256
S'\x90*\r\xe9\xfd\xa0e@'
p2870
tp2871
Rp2872
tp2873
a(g788
g252
(g256
S'\xce\xcc4 \xf6\xf0f@'
p2874
tp2875
Rp2876
tp2877
a(g828
g252
(g256
S'*\xd7\x80\xa7\xec\xf1f@'
p2878
tp2879
Rp2880
tp2881
a(g743
g252
(g256
S'>?"\xe23\xbeh@'
p2882
tp2883
Rp2884
tp2885
a(g498
g252
(g256
S'\x12\xfd"0&\xd8h@'
p2886
tp2887
Rp2888
tp2889
a(g488
g252
(g256
S'\xbf\xadS\x81m\xd9h@'
p2890
tp2891
Rp2892
tp2893
a(g493
g252
(g256
S'\xf8\x08\xef+\xab\xddh@'
p2894
tp2895
Rp2896
tp2897
a(g503
g252
(g256
S'*E\xdf\x1a\xd3\xe4h@'
p2898
tp2899
Rp2900
tp2901
a(g508
g252
(g256
S'\xe9h\xdal\x03ji@'
p2902
tp2903
Rp2904
tp2905
a(g813
g252
(g256
S'\xec\xa4o\xaa\x80\xcdi@'
p2906
tp2907
Rp2908
tp2909
a(g698
g252
(g256
S'\xd1|\xefF\xec\xb7k@'
p2910
tp2911
Rp2912
tp2913
a(g778
g252
(g256
S'fW\x8a\xf0\x90\xbck@'
p2914
tp2915
Rp2916
tp2917
a(g588
g252
(g256
S'S\x80\x00(\x14\xf1k@'
p2918
tp2919
Rp2920
tp2921
a(g688
g252
(g256
S'\x16\xae1\x0c\x9b\x06l@'
p2922
tp2923
Rp2924
tp2925
a(g638
g252
(g256
S'\x80i\xcb\xdd\xca\xa3l@'
p2926
tp2927
Rp2928
tp2929
a(g318
g252
(g256
S'i9h\xf6,\x12m@'
p2930
tp2931
Rp2932
tp2933
a(g728
g252
(g256
S'\xba\x8c0\x1fd\x9em@'
p2934
tp2935
Rp2936
tp2937
a(g648
g252
(g256
S'\xbd>\x7f\xc9\xbe\x93n@'
p2938
tp2939
Rp2940
tp2941
a(g473
g252
(g256
S'>\x1d\x8f\xc8\x89\xd7o@'
p2942
tp2943
Rp2944
tp2945
a(g838
g252
(g256
S'\x14]>\xed\xfa"p@'
p2946
tp2947
Rp2948
tp2949
a(g568
g252
(g256
S'\xd4\x19\xb0Hi$p@'
p2950
tp2951
Rp2952
tp2953
a(g573
g252
(g256
S'\xd4\x19\xb0Hi$p@'
p2954
tp2955
Rp2956
tp2957
a(g478
g252
(g256
S'\x86\xedT\x13]\xd0p@'
p2958
tp2959
Rp2960
tp2961
a(g663
g252
(g256
S'\n\xaf\xfd\xb8\x02bq@'
p2962
tp2963
Rp2964
tp2965
a(g703
g252
(g256
S'\xe9g\xebFx\x86q@'
p2966
tp2967
Rp2968
tp2969
a(g723
g252
(g256
S'Dw1\x10\xde\xa1q@'
p2970
tp2971
Rp2972
tp2973
a(g853
g252
(g256
S'\x08\xa8\x02\x8c\r\xddq@'
p2974
tp2975
Rp2976
tp2977
a(g733
g252
(g256
S'Lc]\xe0\x80\x01r@'
p2978
tp2979
Rp2980
tp2981
a(g738
g252
(g256
S'Lc]\xe0\x80\x01r@'
p2982
tp2983
Rp2984
tp2985
a(g858
g252
(g256
S'\xb0\xcd\xa06l*r@'
p2986
tp2987
Rp2988
tp2989
a(g268
g252
(g256
S'\x02\x97<_I;s@'
p2990
tp2991
Rp2992
tp2993
a(g353
g252
(g256
S'\xf5)\xec\x02zis@'
p2994
tp2995
Rp2996
tp2997
a(g358
g252
(g256
S'\xe8\xb28\x11djs@'
p2998
tp2999
Rp3000
tp3001
a(g363
g252
(g256
S'!\x1e\x8e\xf6\xf2qs@'
p3002
tp3003
Rp3004
tp3005
a(g458
g252
(g256
S'\xfe\xcc\xe0\xbd\xffss@'
p3006
tp3007
Rp3008
tp3009
a(g593
g252
(g256
S'r[\xfe\ru\xa1s@'
p3010
tp3011
Rp3012
tp3013
a(g598
g252
(g256
S'\xd4\xfe\x1bS\x15\xabs@'
p3014
tp3015
Rp3016
tp3017
a(g283
g252
(g256
S'\xe6[\x0c\x85\xff\xb8s@'
p3018
tp3019
Rp3020
tp3021
a(g758
g252
(g256
S'\xd0\x16\n\x90\xb6\xf3s@'
p3022
tp3023
Rp3024
tp3025
a(g373
g252
(g256
S'-f\x97\xb3$\xf7s@'
p3026
tp3027
Rp3028
tp3029
a(g303
g252
(g256
S'\xaf\xfe\xc4\x1e\xf3\x0et@'
p3030
tp3031
Rp3032
tp3033
a(g578
g252
(g256
S'\xaac\xb6\xe3X\x17t@'
p3034
tp3035
Rp3036
tp3037
a(g378
g252
(g256
S'\xbc\x865@t.t@'
p3038
tp3039
Rp3040
tp3041
a(g263
g252
(g256
S'Q\xd7/D\x81Xt@'
p3042
tp3043
Rp3044
tp3045
a(g308
g252
(g256
S'\xfb\xd1bC\xdf\x85t@'
p3046
tp3047
Rp3048
tp3049
a(g673
g252
(g256
S'\x14\xa2hX\xbe\xb8t@'
p3050
tp3051
Rp3052
tp3053
a(g538
g252
(g256
S'\xce\x05=\rR\xf6t@'
p3054
tp3055
Rp3056
tp3057
a(g368
g252
(g256
S'\xfb\xfd\x8aWlQu@'
p3058
tp3059
Rp3060
tp3061
a(g603
g252
(g256
S'D\xd4\xc2\xd7\x06hu@'
p3062
tp3063
Rp3064
tp3065
a(g398
g252
(g256
S'f\x04\x95\xb4\xe2mu@'
p3066
tp3067
Rp3068
tp3069
a(g668
g252
(g256
S'B\xacq\xa8\\\x91u@'
p3070
tp3071
Rp3072
tp3073
a(g393
g252
(g256
S'\xb2\xd2\xbc\x17\xf8\xb1u@'
p3074
tp3075
Rp3076
tp3077
a(g528
g252
(g256
S'T6\x18\x8d\xca\xb6u@'
p3078
tp3079
Rp3080
tp3081
a(g388
g252
(g256
S'*!\xe1;\x0f\xcbu@'
p3082
tp3083
Rp3084
tp3085
a(g288
g252
(g256
S',\x1aQa\x9a\xcdu@'
p3086
tp3087
Rp3088
tp3089
a(g683
g252
(g256
S'\xe8\x87\x95r_\xfeu@'
p3090
tp3091
Rp3092
tp3093
a(g533
g252
(g256
S'\xfe\xdf\xa6\xe1\xbc2v@'
p3094
tp3095
Rp3096
tp3097
a(g313
g252
(g256
S' \xea\xa5\xf3\rAv@'
p3098
tp3099
Rp3100
tp3101
a(g428
g252
(g256
S'\x08x\x93\x02\xc6\xe4v@'
p3102
tp3103
Rp3104
tp3105
a(g443
g252
(g256
S'}}9qY\xf7v@'
p3106
tp3107
Rp3108
tp3109
a(g273
g252
(g256
S'v\x9c/.\x94\xfdv@'
p3110
tp3111
Rp3112
tp3113
a(g558
g252
(g256
S'\xea\x0c\x07H\xe4\xfdv@'
p3114
tp3115
Rp3116
tp3117
a(g823
g252
(g256
S'\xc5%\xa5a\x11\x02w@'
p3118
tp3119
Rp3120
tp3121
a(g328
g252
(g256
S'\xac\x94M\x995\x0ew@'
p3122
tp3123
Rp3124
tp3125
a(g833
g252
(g256
S'\xdc\x94\xcc.w\x85w@'
p3126
tp3127
Rp3128
tp3129
a(g633
g252
(g256
S'B\xe1:\xf3\x96\x8fw@'
p3130
tp3131
Rp3132
tp3133
a(g808
g252
(g256
S'\xecSG{\xa8\xc1w@'
p3134
tp3135
Rp3136
tp3137
a(g408
g252
(g256
S'\xd4\xa1\xca\x93\xed\xfcw@'
p3138
tp3139
Rp3140
tp3141
a(g413
g252
(g256
S'\xd4\xa1\xca\x93\xed\xfcw@'
p3142
tp3143
Rp3144
tp3145
a(g418
g252
(g256
S'\xd4\xa1\xca\x93\xed\xfcw@'
p3146
tp3147
Rp3148
tp3149
a(g423
g252
(g256
S'\xd4\xa1\xca\x93\xed\xfcw@'
p3150
tp3151
Rp3152
tp3153
a(g643
g252
(g256
S'\xdd\xd9:S\xbd8x@'
p3154
tp3155
Rp3156
tp3157
a(g678
g252
(g256
S'z2\xd7\x89\xf4Bx@'
p3158
tp3159
Rp3160
tp3161
a(g803
g252
(g256
S'\xec\x81{L\xbaFx@'
p3162
tp3163
Rp3164
tp3165
a(g298
g252
(g256
S'\xcf;\xae\xf8\xb6Kx@'
p3166
tp3167
Rp3168
tp3169
a(g783
g252
(g256
S'\xda\x87d\xc8\x83Sx@'
p3170
tp3171
Rp3172
tp3173
a(g768
g252
(g256
S'\xc7\x17\xcb\x91\xd5Zx@'
p3174
tp3175
Rp3176
tp3177
a(g251
g252
(g256
S'\x16\x89\xc3\xb90`x@'
p3178
tp3179
Rp3180
tp3181
a(g563
g252
(g256
S'\xd4,\x80aHjx@'
p3182
tp3183
Rp3184
tp3185
a(g628
g252
(g256
S'\xf6mI\xf1)nx@'
p3186
tp3187
Rp3188
tp3189
a(g608
g252
(g256
S'\x009={\x98px@'
p3190
tp3191
Rp3192
tp3193
a(g518
g252
(g256
S'\x05\x8dyh\x1cqx@'
p3194
tp3195
Rp3196
tp3197
a(g623
g252
(g256
S'\xc4<\x93\\vrx@'
p3198
tp3199
Rp3200
tp3201
a(g773
g252
(g256
S'5\xd0\x9cjOux@'
p3202
tp3203
Rp3204
tp3205
a(g338
g252
(g256
S'.\xe1\xc2g\xe9xx@'
p3206
tp3207
Rp3208
tp3209
a(g463
g252
(g256
S'\xd1)\x14^\n{x@'
p3210
tp3211
Rp3212
tp3213
a(g513
g252
(g256
S'\x0e\xebE\xc2~~x@'
p3214
tp3215
Rp3216
tp3217
a(g403
g252
(g256
S'|\xe6a\x8au\x7fx@'
p3218
tp3219
Rp3220
tp3221
a(g523
g252
(g256
S'\x16\xfc\x94F\xa9\x80x@'
p3222
tp3223
Rp3224
tp3225
a(g343
g252
(g256
S'\xbd\xecB\x15\xb9\x80x@'
p3226
tp3227
Rp3228
tp3229
a(g438
g252
(g256
S'\x14\xcc\x8bS#\x83x@'
p3230
tp3231
Rp3232
tp3233
a(g553
g252
(g256
S'\xb2\x07\xfcr\xa3\x84x@'
p3234
tp3235
Rp3236
tp3237
a(g548
g252
(g256
S'\xac\x94w\xb3+\x87x@'
p3238
tp3239
Rp3240
tp3241
a(g468
g252
(g256
S'\x9b\x9d\x16\xe2\x8b\x91x@'
p3242
tp3243
Rp3244
tp3245
a(g618
g252
(g256
S'\xd8)\xa5\xc0\x1c\x94x@'
p3246
tp3247
Rp3248
tp3249
a(g543
g252
(g256
S'\x91n\xd0U{\x97x@'
p3250
tp3251
Rp3252
tp3253
a(g278
g252
(g256
S'M4\xe5\xcd\x05\x98x@'
p3254
tp3255
Rp3256
tp3257
a(g293
g252
(g256
S'o\xe7\xc3\x9bK\x9cx@'
p3258
tp3259
Rp3260
tp3261
a(g383
g252
(g256
S'\xef|\x1b\x92\xc0\xa3x@'
p3262
tp3263
Rp3264
tp3265
a(g433
g252
(g256
S'\t\x95\xeb\x99e\xb0x@'
p3266
tp3267
Rp3268
tp3269
a(g713
g252
(g256
S' \r,\xae\xed\xd4x@'
p3270
tp3271
Rp3272
tp3273
a(g708
g252
(g256
S'?\xb3\x0b\xd9\x81hy@'
p3274
tp3275
Rp3276
tp3277
aa(lp3278
(g843
g252
(g256
S'S5\xd0\xb7\xd2RC@'
p3279
tp3280
Rp3281
tp3282
a(g848
g252
(g256
S'S5\xd0\xb7\xd2RC@'
p3283
tp3284
Rp3285
tp3286
a(g753
g252
(g256
S'~P\xcb\xe8Z\x1bE@'
p3287
tp3288
Rp3289
tp3290
a(g748
g252
(g256
S'\xc7\xc9\xae\x88`\x06G@'
p3291
tp3292
Rp3293
tp3294
a(g718
g252
(g256
S'\xfc"\xb2&A\x1eG@'
p3295
tp3296
Rp3297
tp3298
a(g653
g252
(g256
S'\n\x86<\x7fH\xb3K@'
p3299
tp3300
Rp3301
tp3302
a(g348
g252
(g256
S'\x06\x02\xbe\x18\xb0oL@'
p3303
tp3304
Rp3305
tp3306
a(g798
g252
(g256
S'v\xb2b\xfa\\>M@'
p3307
tp3308
Rp3309
tp3310
a(g583
g252
(g256
S'A\x0f\x19\x01\xdb]M@'
p3311
tp3312
Rp3313
tp3314
a(g613
g252
(g256
S'\x05\xc7\xec\xdbz\xb4M@'
p3315
tp3316
Rp3317
tp3318
a(g448
g252
(g256
S'\xd24U\xe0!\nP@'
p3319
tp3320
Rp3321
tp3322
a(g483
g252
(g256
S'8\xff]\xed\xbe\xd3Z@'
p3323
tp3324
Rp3325
tp3326
a(g658
g252
(g256
S'\xaa\xf9>\xa7\xd3\xb9b@'
p3327
tp3328
Rp3329
tp3330
a(g763
g252
(g256
S'z\x96$\x83\xf3\x97d@'
p3331
tp3332
Rp3333
tp3334
a(g323
g252
(g256
S'm\x1b\x8c\xa5|\xd0d@'
p3335
tp3336
Rp3337
tp3338
a(g863
g252
(g256
S')D\xed\r\xa5\x1ee@'
p3339
tp3340
Rp3341
tp3342
a(g693
g252
(g256
S' FQFi\xa4e@'
p3343
tp3344
Rp3345
tp3346
a(g788
g252
(g256
S'\xd8X\xbfs\xee\x83h@'
p3347
tp3348
Rp3349
tp3350
a(g828
g252
(g256
S'\xa1OY\x9b\x0e6i@'
p3351
tp3352
Rp3353
tp3354
a(g498
g252
(g256
S'\x8dd\xaf\x8fL\xfai@'
p3355
tp3356
Rp3357
tp3358
a(g493
g252
(g256
S'^\xd0\xabJ\xb1\xffi@'
p3359
tp3360
Rp3361
tp3362
a(g488
g252
(g256
S'\xcf%\x1a\xfe\xcf\x06j@'
p3363
tp3364
Rp3365
tp3366
a(g503
g252
(g256
S'\xf3\x91K\xa0\xd0\x07j@'
p3367
tp3368
Rp3369
tp3370
a(g508
g252
(g256
S':U|\x83\x83\x8aj@'
p3371
tp3372
Rp3373
tp3374
a(g813
g252
(g256
S'y\xed\xb2;\xe9\x8aj@'
p3375
tp3376
Rp3377
tp3378
a(g743
g252
(g256
S'\x97j\x973\xe1\x1dk@'
p3379
tp3380
Rp3381
tp3382
a(g698
g252
(g256
S'\x8c!\x0e\x1f\xee\x1bl@'
p3383
tp3384
Rp3385
tp3386
a(g588
g252
(g256
S'\xde\xa8\xb7bC(m@'
p3387
tp3388
Rp3389
tp3390
a(g688
g252
(g256
S'N\xec\x9b\xf7AMm@'
p3391
tp3392
Rp3393
tp3394
a(g778
g252
(g256
S'q\xdcXZW\xccm@'
p3395
tp3396
Rp3397
tp3398
a(g838
g252
(g256
S'\x18\xff\xb9Rg\xf1m@'
p3399
tp3400
Rp3401
tp3402
a(g728
g252
(g256
S'|W\x9b\t\xc2\xfem@'
p3403
tp3404
Rp3405
tp3406
a(g318
g252
(g256
S' \xf8{^\xe2in@'
p3407
tp3408
Rp3409
tp3410
a(g638
g252
(g256
S'\x80\xa0\xa1~:\x0co@'
p3411
tp3412
Rp3413
tp3414
a(g648
g252
(g256
S'\xd9\xcf\xd7\x83\xbf\xa9o@'
p3415
tp3416
Rp3417
tp3418
a(g473
g252
(g256
S'/4\x9d\xcd4\xb8p@'
p3419
tp3420
Rp3421
tp3422
a(g478
g252
(g256
S'\xa2Q%\xf6\xbfIq@'
p3423
tp3424
Rp3425
tp3426
a(g568
g252
(g256
S'\x05by\xb0\xa2Jq@'
p3427
tp3428
Rp3429
tp3430
a(g573
g252
(g256
S'\x05by\xb0\xa2Jq@'
p3431
tp3432
Rp3433
tp3434
a(g733
g252
(g256
S'\xd4\x1e\x0f9\xc3\x14r@'
p3435
tp3436
Rp3437
tp3438
a(g738
g252
(g256
S'\xd4\x1e\x0f9\xc3\x14r@'
p3439
tp3440
Rp3441
tp3442
a(g663
g252
(g256
S'v\xdbi\xd5r\x19r@'
p3443
tp3444
Rp3445
tp3446
a(g703
g252
(g256
S'Fb\xf1nxNr@'
p3447
tp3448
Rp3449
tp3450
a(g723
g252
(g256
S'+\xd7xC\x87_r@'
p3451
tp3452
Rp3453
tp3454
a(g853
g252
(g256
S'\xc7\x90\xf7ZX\xf7r@'
p3455
tp3456
Rp3457
tp3458
a(g858
g252
(g256
S'\\\x10S\xf6\xb9\xfcr@'
p3459
tp3460
Rp3461
tp3462
a(g268
g252
(g256
S'\x8e\x9f67\xf6\xdas@'
p3463
tp3464
Rp3465
tp3466
a(g458
g252
(g256
S'\xf4~&bQ\xeas@'
p3467
tp3468
Rp3469
tp3470
a(g353
g252
(g256
S'F\xe6\xa9Id\x11t@'
p3471
tp3472
Rp3473
tp3474
a(g358
g252
(g256
S'g\x15\xc1\xaem\x12t@'
p3475
tp3476
Rp3477
tp3478
a(g363
g252
(g256
S'\xb8\xfdf\x12\xe4\x1at@'
p3479
tp3480
Rp3481
tp3482
a(g373
g252
(g256
S'Cz\x0e\xb2\xf4Dt@'
p3483
tp3484
Rp3485
tp3486
a(g758
g252
(g256
S'Il\x95\xec\xee\x87t@'
p3487
tp3488
Rp3489
tp3490
a(g593
g252
(g256
S'z\xd6\xf9\x84\xd3\x99t@'
p3491
tp3492
Rp3493
tp3494
a(g283
g252
(g256
S'\x8cs\xf2\xc0\xa1\x9bt@'
p3495
tp3496
Rp3497
tp3498
a(g598
g252
(g256
S'\xd8\xdc.\xfa\xc8\xa2t@'
p3499
tp3500
Rp3501
tp3502
a(g578
g252
(g256
S'\xd6\xbf/\x9d\xbe\xa8t@'
p3503
tp3504
Rp3505
tp3506
a(g303
g252
(g256
S'Tq|<\xef\xe4t@'
p3507
tp3508
Rp3509
tp3510
a(g263
g252
(g256
S'\xb7]u[\xd4+u@'
p3511
tp3512
Rp3513
tp3514
a(g378
g252
(g256
S'\xfb\n\xe9\xce\xa2>u@'
p3515
tp3516
Rp3517
tp3518
a(g308
g252
(g256
S'BV\xc4\xbeg\\u@'
p3519
tp3520
Rp3521
tp3522
a(g538
g252
(g256
S'\x01\xf8H\xe7H\xa5u@'
p3523
tp3524
Rp3525
tp3526
a(g673
g252
(g256
S'\x89K&\xb0S\xc9u@'
p3527
tp3528
Rp3529
tp3530
a(g398
g252
(g256
S'"k\xca\x1b\x18\x07v@'
p3531
tp3532
Rp3533
tp3534
a(g368
g252
(g256
S'\xe1\xfd \n\x16"v@'
p3535
tp3536
Rp3537
tp3538
a(g603
g252
(g256
S'\xa4h\xcf\x87\x033v@'
p3539
tp3540
Rp3541
tp3542
a(g668
g252
(g256
S'd\xe9`a\x9c}v@'
p3543
tp3544
Rp3545
tp3546
a(g528
g252
(g256
S'\xacLSm2\x84v@'
p3547
tp3548
Rp3549
tp3550
a(g393
g252
(g256
S'\xae\xcd@\x01\x12\x94v@'
p3551
tp3552
Rp3553
tp3554
a(g388
g252
(g256
S'\xe0\n\xe4\xa1^\xa2v@'
p3555
tp3556
Rp3557
tp3558
a(g533
g252
(g256
S'\xa7<\xc8x\x16\xb1v@'
p3559
tp3560
Rp3561
tp3562
a(g288
g252
(g256
S'\xbe\x1c\x13?\x98\xbdv@'
p3563
tp3564
Rp3565
tp3566
a(g313
g252
(g256
S'\xe9\xa8?^\xcb\xf1v@'
p3567
tp3568
Rp3569
tp3570
a(g683
g252
(g256
S'\xf0\xfc\x83\xf9\x89\nw@'
p3571
tp3572
Rp3573
tp3574
a(g428
g252
(g256
S'\xee\x12\xfb\xd1\xbe\x82w@'
p3575
tp3576
Rp3577
tp3578
a(g328
g252
(g256
S'\xbdte\xfa\xed\xa5w@'
p3579
tp3580
Rp3581
tp3582
a(g443
g252
(g256
S'\x8f\xa4c&\xad\xbbw@'
p3583
tp3584
Rp3585
tp3586
a(g823
g252
(g256
S'\x13\xb2\xcbf\x89\xc8w@'
p3587
tp3588
Rp3589
tp3590
a(g273
g252
(g256
S'\xc6\xe9\xf2\\i\xdfw@'
p3591
tp3592
Rp3593
tp3594
a(g558
g252
(g256
S'?\x99\xd5WZ\tx@'
p3595
tp3596
Rp3597
tp3598
a(g833
g252
(g256
S'\xf9\x99P\xa3Wcx@'
p3599
tp3600
Rp3601
tp3602
a(g408
g252
(g256
S'\xc7\x85\xb5n\xa6\x86x@'
p3603
tp3604
Rp3605
tp3606
a(g413
g252
(g256
S'\xc7\x85\xb5n\xa6\x86x@'
p3607
tp3608
Rp3609
tp3610
a(g418
g252
(g256
S'\xc7\x85\xb5n\xa6\x86x@'
p3611
tp3612
Rp3613
tp3614
a(g423
g252
(g256
S'\xc7\x85\xb5n\xa6\x86x@'
p3615
tp3616
Rp3617
tp3618
a(g808
g252
(g256
S'\x9e\x1b(\x1f\xf8\xbax@'
p3619
tp3620
Rp3621
tp3622
a(g633
g252
(g256
S'\xe9\xdd\xd4\xf4w\xc4x@'
p3623
tp3624
Rp3625
tp3626
a(g783
g252
(g256
S'h\xec\xb5\x9aE\xf4x@'
p3627
tp3628
Rp3629
tp3630
a(g678
g252
(g256
S'!\x84%\xdf\t\xf8x@'
p3631
tp3632
Rp3633
tp3634
a(g803
g252
(g256
S'}\xcaL\xef^\x04y@'
p3635
tp3636
Rp3637
tp3638
a(g768
g252
(g256
S'\x81\x1c\x17\xba\xba\x10y@'
p3639
tp3640
Rp3641
tp3642
a(g643
g252
(g256
S'\xca0\x86\xdf2\x1by@'
p3643
tp3644
Rp3645
tp3646
a(g298
g252
(g256
S'\x1fk\xa3\x83\xd1)y@'
p3647
tp3648
Rp3649
tp3650
a(g251
g252
(g256
S'\x8a\xd6#\x96\xbf+y@'
p3651
tp3652
Rp3653
tp3654
a(g608
g252
(g256
S'\xc4`\xc8=\xdb3y@'
p3655
tp3656
Rp3657
tp3658
a(g563
g252
(g256
S'\xe6Fn\xc5%>y@'
p3659
tp3660
Rp3661
tp3662
a(g518
g252
(g256
S'\xba9\x8d\x07\xa8@y@'
p3663
tp3664
Rp3665
tp3666
a(g773
g252
(g256
S'b2 t#Ay@'
p3667
tp3668
Rp3669
tp3670
a(g618
g252
(g256
S"'\xfd\x05M.Ey@"
p3671
tp3672
Rp3673
tp3674
a(g523
g252
(g256
S'\xb6\xec\x03\x92\xceGy@'
p3675
tp3676
Rp3677
tp3678
a(g623
g252
(g256
S'\xca;\x9e\xa4\x0eIy@'
p3679
tp3680
Rp3681
tp3682
a(g403
g252
(g256
S'\xdc\x14.<2Iy@'
p3683
tp3684
Rp3685
tp3686
a(g463
g252
(g256
S'\xd0/\x16\xb9\x8fJy@'
p3687
tp3688
Rp3689
tp3690
a(g513
g252
(g256
S'(\xf0&\x95\x18My@'
p3691
tp3692
Rp3693
tp3694
a(g628
g252
(g256
S'r\x14rYyMy@'
p3695
tp3696
Rp3697
tp3698
a(g338
g252
(g256
S'."!G\xf2Ny@'
p3699
tp3700
Rp3701
tp3702
a(g553
g252
(g256
S'\x17\xdf-\xc7\xdbSy@'
p3703
tp3704
Rp3705
tp3706
a(g343
g252
(g256
S'\x16\x8a9\xab\x94Ty@'
p3707
tp3708
Rp3709
tp3710
a(g438
g252
(g256
S'\xd2:\x13\x92\xcaWy@'
p3711
tp3712
Rp3713
tp3714
a(g548
g252
(g256
S'\xfa\x1c\xc4n\xe1Zy@'
p3715
tp3716
Rp3717
tp3718
a(g468
g252
(g256
S'\xc1\x1e\xd3\xfa\tey@'
p3719
tp3720
Rp3721
tp3722
a(g278
g252
(g256
S'<\xaf\xed\x1b\x12iy@'
p3723
tp3724
Rp3725
tp3726
a(g543
g252
(g256
S'\xac\x90cv^\x88y@'
p3727
tp3728
Rp3729
tp3730
a(g383
g252
(g256
S'f\xb7\x9d\xb8W\x8by@'
p3731
tp3732
Rp3733
tp3734
a(g293
g252
(g256
S'r\xce\xff\xca\xa7\x8dy@'
p3735
tp3736
Rp3737
tp3738
a(g433
g252
(g256
S'\x1f3\xff?\xcb\x8dy@'
p3739
tp3740
Rp3741
tp3742
a(g713
g252
(g256
S'-hY\x03\xd6\x9fy@'
p3743
tp3744
Rp3745
tp3746
aa.