(dp0
S'probIndexinLevel'
p1
F2.575834453
sS'ruleScoreEXP'
p2
F7.303668042
sS'cumul_easyProbAlternate'
p3
F1.30361396
sS'NewLevel'
p4
I0
sS'MorphCount'
p5
F0.03845004
sS'difficultProblemCountWE'
p6
F6.881755707
sS'difficultProblemCountSolved'
p7
F7.495904196
sS'cumul_PrightAppRatio'
p8
F6.403310327
sS'cumul_difficultProblemCountSolved'
p9
F4.619385093
sS'cumul_WrongSemanticsApp'
p10
I0
sS'OptionalCount'
p11
I0
sS'cumul_HoverHintCount'
p12
I0
sS'easyProblemCountSolved'
p13
F3.031319919
sS'TotalWETime'
p14
F1.003418917
sS'cumul_hintRatio'
p15
F0.903856905
sS'cumul_F1Score'
p16
F6.494549579
sS'symbolicRepresentationCount'
p17
I0
sS'ruleScoreHS'
p18
F5.417096267
sS'cumul_NonPSelements'
p19
I0
sS'Level'
p20
F7.820938772
sS'cumul_englishSymbolicSwitchCount'
p21
I0
sS'cumul_UseWindowInfo'
p22
I0
sS'RrightAppRatio'
p23
I0
sS'FDActionCount'
p24
I0
sS'ruleScoreASSOC'
p25
F2.850218378
sS'ruleScoreTAUT'
p26
I0
sS'cumul_actionCount'
p27
F4.059552283
sS'CurrPro_avgProbTimePS'
p28
F0.235704528
sS'ruleScoreIMPL'
p29
F5.258450181
sS'cumul_easyProblemCountWE'
p30
I0
sS'cumul_InterfaceErrorCount'
p31
I0
sS'hintRatio'
p32
I0
sS'cumul_easyProblemCountSolved'
p33
F1.663910257
sS'CurrPro_avgProbTimeWE'
p34
F0.619830937
sS'ruleScoreCONTRA'
p35
I0
sS'cumul_DirectProofActionCount'
p36
F3.431978762
sS'actionCount'
p37
I0
sS'cumul_probIndexinLevel'
p38
F2.575834453
sS'WrongSemanticsApp'
p39
F0.05072746
sS'ruleScoreCD'
p40
F3.43210214
sS'TotalPSTime'
p41
F2.912579876
sS'Interaction'
p42
I0
sS'ruleScoreDIST'
p43
F2.833356075
sS'CurrPro_avgProbTimeDeviationPS'
p44
F2.383172376
sS'cumul_SystemInfoHintCount'
p45
I0
sS'WrongSyntaxApp'
p46
I0
sS'easyProbAlternate'
p47
F1.30361396
sS'ruleScoreCOM'
p48
I0
sS'ruleScoreCONJ'
p49
F5.862699139
sS'ruleScoreSIMP'
p50
F0.041532362
sS'TotalTime'
p51
F2.62681022
sS'SeenWEinLevel'
p52
F0.177936327
sS'cumul_avgstepTimePS'
p53
F2.718134207
sS'cumul_deletedApp'
p54
I0
sS'UseCount'
p55
I0
sS'cumul_BDActionCount'
p56
I0
sS'easyProblemCountWE'
p57
I0
sS'ruleScoreMP'
p58
F4.935938483
sS'ruleScoreMT'
p59
F2.785215099
sS'cumul_WrongApp'
p60
I0
sS'PreviousStepClickCountWE'
p61
F0.230447671
sS'ruleScoreADD'
p62
I0
sS'cumul_PreviousStepClickCountWE'
p63
I0
sS'DirectProofActionCount'
p64
I0
sS'cumul_Interaction'
p65
F4.286122179
sS'UseWindowInfo'
p66
I0
sS'ruleScoreEQUIV'
p67
I0
sS'CurrPro_NumProbRule'
p68
F7.742928577
sS'cumul_RrightAppRatio'
p69
F1.007372656
sS'cumul_probAlternate'
p70
F1.30361396
sS'ruleScoreDS'
p71
F4.764330022
sS'deletedApp'
p72
I0
sS'stepTimeDeviation'
p73
F4.760824488
sS'cumul_UseCount'
p74
I0
sS'SystemInfoHintCount'
p75
I0
sS'cumul_NextStepClickCountWE'
p76
I0
sS'cumul_symbolicRepresentationCount'
p77
I0
sS'probIndexPSinLevel'
p78
F1.879300632
sS'cumul_AppCount'
p79
F3.822805262
sS'cumul_WrongSyntaxApp'
p80
I0
sS'PrightAppRatio'
p81
F1.282115551
sS'PrepCount'
p82
I0
sS'ruleScoreDN'
p83
F6.94800375
sS'cumul_InDirectProofActionCount'
p84
I0
sS'cumul_TotalWETime'
p85
F0.29417682
sS'RuleTypesCount'
p86
F5.235615925
sS'NonPSelements'
p87
I0
sS'cumul_BlankRatio'
p88
F2.975444351
sS'HoverHintCount'
p89
I0
sS'ruleScoreABS'
p90
F5.839284137
sS'RightApp'
p91
I0
sS'probAlternate'
p92
F1.30361396
sS'CurrPro_avgProbTimeDeviationWE'
p93
F0.619830937
sS'cumul_RightApp'
p94
I0
sS'InterfaceErrorCount'
p95
I0
sS'AppCount'
p96
I0
sS'cumul_TotalPSTime'
p97
F9.119785008
sS'F1Score'
p98
F3.187246338
sS'cumul_avgstepTimeWE'
p99
F5.109813896
sS'cumul_FDActionCount'
p100
F4.03149079
sS'cumul_AppRatio'
p101
F2.97423847
sS'cumul_hintCount'
p102
I0
sS'WrongApp'
p103
I0
sS'AppRatio'
p104
F0.4518643
sS'BlankRatio'
p105
F0.4518643
sS'cumul_MorphCount'
p106
I0
sS'hintCount'
p107
I0
sS'cumul_difficultProblemCountWE'
p108
F8.958987936
sS'BDActionCount'
p109
I0
sS'cumul_OptionalCount'
p110
I0
sS'InDirectProofActionCount'
p111
F0.046711735
sS'ruleScoreDEM'
p112
F4.599319234
sS'englishSymbolicSwitchCount'
p113
F0.030229511
sS'avgstepTimePS'
p114
I0
sS'avgstepTime'
p115
I0
sS'cumul_RuleTypesCount'
p116
F0.523493143
sS'cumul_TotalTime'
p117
F5.692384211
sS'SolvedPSInLevel'
p118
I0
sS'CurrPro_avgProbTime'
p119
F2.291045266
sS'CurrPro_medianProbTime'
p120
F0.995265779
sS'cumul_PrepCount'
p121
I0
sS'NextStepClickCountWE'
p122
F2.831811541
sS'probDiff'
p123
F8.605472275
sS'cumul_avgstepTime'
p124
F2.703315972
s.