(lp0
S'cumul_TotalPSTime'
p1
aS'difficultProblemCountSolved'
p2
aS'ruleScoreEQUIV'
p3
aS'F1Score'
p4
aS'ruleScoreIMPL'
p5
aS'ruleScoreSIMP'
p6
aS'cumul_NextStepClickCountWE'
p7
aS'SeenWEinLevel'
p8
a.